
build/output.elf:     file format elf32-littlearm


Disassembly of section .text:

00008000 <_start>:
    8000:	e92d0007 	push	{r0, r1, r2}
    8004:	e3a00b01 	mov	r0, #1024	; 0x400
    8008:	e3a01c03 	mov	r1, #768	; 0x300
    800c:	e3a02010 	mov	r2, #16
    8010:	eb00002c 	bl	80c8 <InitialiseFrameBuffer>
    8014:	e8bd0007 	pop	{r0, r1, r2}
    8018:	eb000000 	bl	8020 <main>

0000801c <_infinite_loop$>:
    801c:	eafffffe 	b	801c <_infinite_loop$>

00008020 <main>:
    8020:	e1a04002 	mov	r4, r2
    8024:	e92d4008 	push	{r3, lr}
    8028:	eb00004e 	bl	8168 <habilitar_GPIO_ACT_LED_output>
    802c:	e1a00004 	mov	r0, r4
    8030:	eb0003db 	bl	8fa4 <bgInit>
    8034:	eb000056 	bl	8194 <enciende_ACT_LED>
    8038:	eb0001ab 	bl	86ec <bgRefresh>
    803c:	e59f0014 	ldr	r0, [pc, #20]	; 8058 <main+0x38>
    8040:	eb00005b 	bl	81b4 <RPI_esperarMicroSeconds>
    8044:	eb00004d 	bl	8180 <apaga_ACT_LED>
    8048:	eb0001a7 	bl	86ec <bgRefresh>
    804c:	e59f0004 	ldr	r0, [pc, #4]	; 8058 <main+0x38>
    8050:	eb000057 	bl	81b4 <RPI_esperarMicroSeconds>
    8054:	eafffff6 	b	8034 <main+0x14>
    8058:	0007a120 	.word	0x0007a120

0000805c <MailboxWrite>:
    805c:	e310000f 	tst	r0, #15
    8060:	11a0f00e 	movne	pc, lr
    8064:	e351000f 	cmp	r1, #15
    8068:	81a0f00e 	movhi	pc, lr
    806c:	e1a02000 	mov	r2, r0
    8070:	e52de004 	push	{lr}		; (str lr, [sp, #-4]!)
    8074:	e59f00a8 	ldr	r0, [pc, #168]	; 8124 <InitialiseFrameBuffer+0x5c>

00008078 <wait1$>:
    8078:	e5903018 	ldr	r3, [r0, #24]
    807c:	e3130102 	tst	r3, #-2147483648	; 0x80000000
    8080:	1afffffc 	bne	8078 <wait1$>
    8084:	e0822001 	add	r2, r2, r1
    8088:	e5802020 	str	r2, [r0, #32]
    808c:	e49df004 	pop	{pc}		; (ldr pc, [sp], #4)

00008090 <MailboxRead>:
    8090:	e350000f 	cmp	r0, #15
    8094:	81a0f00e 	movhi	pc, lr
    8098:	e1a01000 	mov	r1, r0
    809c:	e52de004 	push	{lr}		; (str lr, [sp, #-4]!)
    80a0:	e59f007c 	ldr	r0, [pc, #124]	; 8124 <InitialiseFrameBuffer+0x5c>

000080a4 <rightmail$>:
    80a4:	e5902018 	ldr	r2, [r0, #24]
    80a8:	e3120101 	tst	r2, #1073741824	; 0x40000000
    80ac:	1afffffc 	bne	80a4 <rightmail$>
    80b0:	e5902000 	ldr	r2, [r0]
    80b4:	e202300f 	and	r3, r2, #15
    80b8:	e1330001 	teq	r3, r1
    80bc:	1afffff8 	bne	80a4 <rightmail$>
    80c0:	e3c2000f 	bic	r0, r2, #15
    80c4:	e49df004 	pop	{pc}		; (ldr pc, [sp], #4)

000080c8 <InitialiseFrameBuffer>:
    80c8:	e3500a01 	cmp	r0, #4096	; 0x1000
    80cc:	93510a01 	cmpls	r1, #4096	; 0x1000
    80d0:	93520020 	cmpls	r2, #32
    80d4:	83a00000 	movhi	r0, #0
    80d8:	81a0f00e 	movhi	pc, lr
    80dc:	e92d4010 	push	{r4, lr}
    80e0:	e59f4040 	ldr	r4, [pc, #64]	; 8128 <InitialiseFrameBuffer+0x60>
    80e4:	e5840000 	str	r0, [r4]
    80e8:	e5841004 	str	r1, [r4, #4]
    80ec:	e5840008 	str	r0, [r4, #8]
    80f0:	e584100c 	str	r1, [r4, #12]
    80f4:	e5842014 	str	r2, [r4, #20]
    80f8:	e1a00004 	mov	r0, r4
    80fc:	e2800101 	add	r0, r0, #1073741824	; 0x40000000
    8100:	e3a01001 	mov	r1, #1
    8104:	ebffffd4 	bl	805c <MailboxWrite>
    8108:	e3a00001 	mov	r0, #1
    810c:	ebffffdf 	bl	8090 <MailboxRead>
    8110:	e3300000 	teq	r0, #0
    8114:	13a00000 	movne	r0, #0
    8118:	18bd8010 	popne	{r4, pc}
    811c:	e1a00004 	mov	r0, r4
    8120:	e8bd8010 	pop	{r4, pc}
    8124:	2000b880 	.word	0x2000b880
    8128:	0000b000 	.word	0x0000b000

0000812c <__aeabi_uidiv>:
    812c:	e1a03001 	mov	r3, r1
    8130:	e15300a0 	cmp	r3, r0, lsr #1
    8134:	91a03083 	lslls	r3, r3, #1
    8138:	e15300a0 	cmp	r3, r0, lsr #1
    813c:	9afffffc 	bls	8134 <__aeabi_uidiv+0x8>
    8140:	e3a02000 	mov	r2, #0
    8144:	e1500003 	cmp	r0, r3
    8148:	20400003 	subcs	r0, r0, r3
    814c:	e0a22002 	adc	r2, r2, r2
    8150:	e1a030a3 	lsr	r3, r3, #1
    8154:	e1530001 	cmp	r3, r1
    8158:	2afffff9 	bcs	8144 <__aeabi_uidiv+0x18>
    815c:	e1a01000 	mov	r1, r0
    8160:	e1a00002 	mov	r0, r2
    8164:	e12fff1e 	bx	lr

00008168 <habilitar_GPIO_ACT_LED_output>:
    8168:	e59f300c 	ldr	r3, [pc, #12]	; 817c <habilitar_GPIO_ACT_LED_output+0x14>
    816c:	e5932010 	ldr	r2, [r3, #16]
    8170:	e3822602 	orr	r2, r2, #2097152	; 0x200000
    8174:	e5832010 	str	r2, [r3, #16]
    8178:	e12fff1e 	bx	lr
    817c:	20200000 	.word	0x20200000

00008180 <apaga_ACT_LED>:
    8180:	e59f3008 	ldr	r3, [pc, #8]	; 8190 <apaga_ACT_LED+0x10>
    8184:	e3a02902 	mov	r2, #32768	; 0x8000
    8188:	e583202c 	str	r2, [r3, #44]	; 0x2c
    818c:	e12fff1e 	bx	lr
    8190:	20200000 	.word	0x20200000

00008194 <enciende_ACT_LED>:
    8194:	e59f3008 	ldr	r3, [pc, #8]	; 81a4 <enciende_ACT_LED+0x10>
    8198:	e3a02902 	mov	r2, #32768	; 0x8000
    819c:	e5832020 	str	r2, [r3, #32]
    81a0:	e12fff1e 	bx	lr
    81a4:	20200000 	.word	0x20200000

000081a8 <RPI_GetSystemTimer>:
    81a8:	e59f0000 	ldr	r0, [pc]	; 81b0 <RPI_GetSystemTimer+0x8>
    81ac:	e12fff1e 	bx	lr
    81b0:	20003000 	.word	0x20003000

000081b4 <RPI_esperarMicroSeconds>:
    81b4:	e59f1024 	ldr	r1, [pc, #36]	; 81e0 <RPI_esperarMicroSeconds+0x2c>
    81b8:	e24dd008 	sub	sp, sp, #8
    81bc:	e5913004 	ldr	r3, [r1, #4]
    81c0:	e58d3004 	str	r3, [sp, #4]
    81c4:	e5912004 	ldr	r2, [r1, #4]
    81c8:	e59d3004 	ldr	r3, [sp, #4]
    81cc:	e0633002 	rsb	r3, r3, r2
    81d0:	e1530000 	cmp	r3, r0
    81d4:	3afffffa 	bcc	81c4 <RPI_esperarMicroSeconds+0x10>
    81d8:	e28dd008 	add	sp, sp, #8
    81dc:	e12fff1e 	bx	lr
    81e0:	20003000 	.word	0x20003000

000081e4 <RPI_GetFrameBufferDescpr>:
    81e4:	e59f0000 	ldr	r0, [pc]	; 81ec <RPI_GetFrameBufferDescpr+0x8>
    81e8:	e12fff1e 	bx	lr
    81ec:	0000b000 	.word	0x0000b000

000081f0 <paintEntireScreen>:
    81f0:	e59fc050 	ldr	ip, [pc, #80]	; 8248 <paintEntireScreen+0x58>
    81f4:	e52d4004 	push	{r4}		; (str r4, [sp, #-4]!)
    81f8:	e59c2020 	ldr	r2, [ip, #32]
    81fc:	e59c300c 	ldr	r3, [ip, #12]
    8200:	e3530000 	cmp	r3, #0
    8204:	0a00000d 	beq	8240 <paintEntireScreen+0x50>
    8208:	e3a04000 	mov	r4, #0
    820c:	e59c3008 	ldr	r3, [ip, #8]
    8210:	e3530000 	cmp	r3, #0
    8214:	0a000005 	beq	8230 <paintEntireScreen+0x40>
    8218:	e3a03000 	mov	r3, #0
    821c:	e59c1008 	ldr	r1, [ip, #8]
    8220:	e2833001 	add	r3, r3, #1
    8224:	e1510003 	cmp	r1, r3
    8228:	e0c200b2 	strh	r0, [r2], #2
    822c:	8afffffa 	bhi	821c <paintEntireScreen+0x2c>
    8230:	e59c300c 	ldr	r3, [ip, #12]
    8234:	e2844001 	add	r4, r4, #1
    8238:	e1530004 	cmp	r3, r4
    823c:	8afffff2 	bhi	820c <paintEntireScreen+0x1c>
    8240:	e49d4004 	pop	{r4}		; (ldr r4, [sp], #4)
    8244:	e12fff1e 	bx	lr
    8248:	0000b000 	.word	0x0000b000

0000824c <line>:
    824c:	e92d0ff0 	push	{r4, r5, r6, r7, r8, r9, sl, fp}
    8250:	e24dd018 	sub	sp, sp, #24
    8254:	e1dd43b8 	ldrh	r4, [sp, #56]	; 0x38
    8258:	e1520000 	cmp	r2, r0
    825c:	e58d4014 	str	r4, [sp, #20]
    8260:	da000032 	ble	8330 <line+0xe4>
    8264:	e0606002 	rsb	r6, r0, r2
    8268:	e3e0b000 	mvn	fp, #0
    826c:	e1530001 	cmp	r3, r1
    8270:	da000028 	ble	8318 <line+0xcc>
    8274:	e3e09000 	mvn	r9, #0
    8278:	e0618003 	rsb	r8, r1, r3
    827c:	e58d900c 	str	r9, [sp, #12]
    8280:	e59d900c 	ldr	r9, [sp, #12]
    8284:	e1580006 	cmp	r8, r6
    8288:	a066c008 	rsbge	ip, r6, r8
    828c:	b068c006 	rsblt	ip, r8, r6
    8290:	e08b2002 	add	r2, fp, r2
    8294:	e0893003 	add	r3, r9, r3
    8298:	e59f50a0 	ldr	r5, [pc, #160]	; 8340 <line+0xf4>
    829c:	e2687000 	rsb	r7, r8, #0
    82a0:	e58d8004 	str	r8, [sp, #4]
    82a4:	ea000015 	b	8300 <line+0xb4>
    82a8:	e1530001 	cmp	r3, r1
    82ac:	0a000016 	beq	830c <line+0xc0>
    82b0:	e5959008 	ldr	r9, [r5, #8]
    82b4:	e1500009 	cmp	r0, r9
    82b8:	2a000007 	bcs	82dc <line+0x90>
    82bc:	e595900c 	ldr	r9, [r5, #12]
    82c0:	e1a0a080 	lsl	sl, r0, #1
    82c4:	e1510009 	cmp	r1, r9
    82c8:	35958010 	ldrcc	r8, [r5, #16]
    82cc:	35959020 	ldrcc	r9, [r5, #32]
    82d0:	30289198 	mlacc	r8, r8, r1, r9
    82d4:	359d9014 	ldrcc	r9, [sp, #20]
    82d8:	318890ba 	strhcc	r9, [r8, sl]
    82dc:	e1540007 	cmp	r4, r7
    82e0:	a59d4004 	ldrge	r4, [sp, #4]
    82e4:	a080000b 	addge	r0, r0, fp
    82e8:	a064c00c 	rsbge	ip, r4, ip
    82ec:	a1a0408c 	lslge	r4, ip, #1
    82f0:	e1540006 	cmp	r4, r6
    82f4:	d59d800c 	ldrle	r8, [sp, #12]
    82f8:	d08cc006 	addle	ip, ip, r6
    82fc:	d0811008 	addle	r1, r1, r8
    8300:	e1500002 	cmp	r0, r2
    8304:	e1a0408c 	lsl	r4, ip, #1
    8308:	1affffe6 	bne	82a8 <line+0x5c>
    830c:	e28dd018 	add	sp, sp, #24
    8310:	e8bd0ff0 	pop	{r4, r5, r6, r7, r8, r9, sl, fp}
    8314:	e12fff1e 	bx	lr
    8318:	b3a0c001 	movlt	ip, #1
    831c:	a3e04000 	mvnge	r4, #0
    8320:	e0638001 	rsb	r8, r3, r1
    8324:	b58dc00c 	strlt	ip, [sp, #12]
    8328:	a58d400c 	strge	r4, [sp, #12]
    832c:	eaffffd3 	b	8280 <line+0x34>
    8330:	e0626000 	rsb	r6, r2, r0
    8334:	b3a0b001 	movlt	fp, #1
    8338:	a3e0b000 	mvnge	fp, #0
    833c:	eaffffca 	b	826c <line+0x20>
    8340:	0000b000 	.word	0x0000b000

00008344 <setPixel>:
    8344:	e59f3028 	ldr	r3, [pc, #40]	; 8374 <setPixel+0x30>
    8348:	e593c008 	ldr	ip, [r3, #8]
    834c:	e150000c 	cmp	r0, ip
    8350:	212fff1e 	bxcs	lr
    8354:	e593c00c 	ldr	ip, [r3, #12]
    8358:	e151000c 	cmp	r1, ip
    835c:	3593c010 	ldrcc	ip, [r3, #16]
    8360:	35933020 	ldrcc	r3, [r3, #32]
    8364:	31a00080 	lslcc	r0, r0, #1
    8368:	3021319c 	mlacc	r1, ip, r1, r3
    836c:	318120b0 	strhcc	r2, [r1, r0]
    8370:	e12fff1e 	bx	lr
    8374:	0000b000 	.word	0x0000b000

00008378 <drawCharacter>:
    8378:	e92d0ff0 	push	{r4, r5, r6, r7, r8, r9, sl, fp}
    837c:	e6ef3070 	uxtb	r3, r0
    8380:	e24dd008 	sub	sp, sp, #8
    8384:	e3130080 	tst	r3, #128	; 0x80
    8388:	e58d3004 	str	r3, [sp, #4]
    838c:	1a000021 	bne	8418 <drawCharacter+0xa0>
    8390:	e59fa088 	ldr	sl, [pc, #136]	; 8420 <drawCharacter+0xa8>
    8394:	e59f4088 	ldr	r4, [pc, #136]	; 8424 <drawCharacter+0xac>
    8398:	e59fb088 	ldr	fp, [pc, #136]	; 8428 <drawCharacter+0xb0>
    839c:	e08aa200 	add	sl, sl, r0, lsl #4
    83a0:	e3a05000 	mov	r5, #0
    83a4:	e7da6005 	ldrb	r6, [sl, r5]
    83a8:	e1a00001 	mov	r0, r1
    83ac:	e3a03000 	mov	r3, #0
    83b0:	e0857002 	add	r7, r5, r2
    83b4:	e1a0c356 	asr	ip, r6, r3
    83b8:	e31c0001 	tst	ip, #1
    83bc:	e2833001 	add	r3, r3, #1
    83c0:	0a000009 	beq	83ec <drawCharacter+0x74>
    83c4:	e594c008 	ldr	ip, [r4, #8]
    83c8:	e150000c 	cmp	r0, ip
    83cc:	2a000006 	bcs	83ec <drawCharacter+0x74>
    83d0:	e594c00c 	ldr	ip, [r4, #12]
    83d4:	e1a08080 	lsl	r8, r0, #1
    83d8:	e15c0007 	cmp	ip, r7
    83dc:	85949010 	ldrhi	r9, [r4, #16]
    83e0:	8594c020 	ldrhi	ip, [r4, #32]
    83e4:	802cc997 	mlahi	ip, r7, r9, ip
    83e8:	818cb0b8 	strhhi	fp, [ip, r8]
    83ec:	e3530008 	cmp	r3, #8
    83f0:	e2800001 	add	r0, r0, #1
    83f4:	1affffee 	bne	83b4 <drawCharacter+0x3c>
    83f8:	e2855001 	add	r5, r5, #1
    83fc:	e3550010 	cmp	r5, #16
    8400:	1affffe7 	bne	83a4 <drawCharacter+0x2c>
    8404:	e59d0004 	ldr	r0, [sp, #4]
    8408:	e6af0070 	sxtb	r0, r0
    840c:	e28dd008 	add	sp, sp, #8
    8410:	e8bd0ff0 	pop	{r4, r5, r6, r7, r8, r9, sl, fp}
    8414:	e12fff1e 	bx	lr
    8418:	e3a000ff 	mov	r0, #255	; 0xff
    841c:	eafffff9 	b	8408 <drawCharacter+0x90>
    8420:	0000b030 	.word	0x0000b030
    8424:	0000b000 	.word	0x0000b000
    8428:	ffffafe5 	.word	0xffffafe5

0000842c <drawString>:
    842c:	e3510000 	cmp	r1, #0
    8430:	e92d43f8 	push	{r3, r4, r5, r6, r7, r8, r9, lr}
    8434:	e1a07000 	mov	r7, r0
    8438:	e1a09002 	mov	r9, r2
    843c:	e1a06003 	mov	r6, r3
    8440:	01a00001 	moveq	r0, r1
    8444:	0a00001a 	beq	84b4 <drawString+0x88>
    8448:	e2518001 	subs	r8, r1, #1
    844c:	0a00001a 	beq	84bc <drawString+0x90>
    8450:	e5d70000 	ldrb	r0, [r7]
    8454:	e3500000 	cmp	r0, #0
    8458:	0a000017 	beq	84bc <drawString+0x90>
    845c:	e1a05002 	mov	r5, r2
    8460:	e3a04000 	mov	r4, #0
    8464:	ea000002 	b	8474 <drawString+0x48>
    8468:	e7d70004 	ldrb	r0, [r7, r4]
    846c:	e3500000 	cmp	r0, #0
    8470:	0a00000d 	beq	84ac <drawString+0x80>
    8474:	e3500009 	cmp	r0, #9
    8478:	0a000007 	beq	849c <drawString+0x70>
    847c:	e350000a 	cmp	r0, #10
    8480:	e1a01005 	mov	r1, r5
    8484:	e1a02006 	mov	r2, r6
    8488:	01a05009 	moveq	r5, r9
    848c:	02866010 	addeq	r6, r6, #16
    8490:	0a000001 	beq	849c <drawString+0x70>
    8494:	ebffffb7 	bl	8378 <drawCharacter>
    8498:	e2855008 	add	r5, r5, #8
    849c:	e2844001 	add	r4, r4, #1
    84a0:	e6ef4074 	uxtb	r4, r4
    84a4:	e1540008 	cmp	r4, r8
    84a8:	3affffee 	bcc	8468 <drawString+0x3c>
    84ac:	e2841001 	add	r1, r4, #1
    84b0:	e6ef0071 	uxtb	r0, r1
    84b4:	e6af0070 	sxtb	r0, r0
    84b8:	e8bd83f8 	pop	{r3, r4, r5, r6, r7, r8, r9, pc}
    84bc:	e3a00001 	mov	r0, #1
    84c0:	eafffffb 	b	84b4 <drawString+0x88>

000084c4 <uintToString>:
    84c4:	e3510010 	cmp	r1, #16
    84c8:	e92d40f8 	push	{r3, r4, r5, r6, r7, lr}
    84cc:	e1a07001 	mov	r7, r1
    84d0:	e1a05000 	mov	r5, r0
    84d4:	e1a04002 	mov	r4, r2
    84d8:	8a00003f 	bhi	85dc <uintToString+0x118>
    84dc:	e5d23000 	ldrb	r3, [r2]
    84e0:	e3530000 	cmp	r3, #0
    84e4:	0a00003a 	beq	85d4 <uintToString+0x110>
    84e8:	e3a03000 	mov	r3, #0
    84ec:	e2833001 	add	r3, r3, #1
    84f0:	e6ef3073 	uxtb	r3, r3
    84f4:	e7d42003 	ldrb	r2, [r4, r3]
    84f8:	e3520000 	cmp	r2, #0
    84fc:	1afffffa 	bne	84ec <uintToString+0x28>
    8500:	e3530009 	cmp	r3, #9
    8504:	9a000032 	bls	85d4 <uintToString+0x110>
    8508:	e3550000 	cmp	r5, #0
    850c:	0a00002a 	beq	85bc <uintToString+0xf8>
    8510:	e3570010 	cmp	r7, #16
    8514:	e1a06002 	mov	r6, r2
    8518:	0a00001d 	beq	8594 <uintToString+0xd0>
    851c:	e1a00005 	mov	r0, r5
    8520:	e1a01007 	mov	r1, r7
    8524:	ebffff00 	bl	812c <__aeabi_uidiv>
    8528:	e2811030 	add	r1, r1, #48	; 0x30
    852c:	e7c41006 	strb	r1, [r4, r6]
    8530:	e1a00005 	mov	r0, r5
    8534:	e1a01007 	mov	r1, r7
    8538:	ebfffefb 	bl	812c <__aeabi_uidiv>
    853c:	e2866001 	add	r6, r6, #1
    8540:	e2505000 	subs	r5, r0, #0
    8544:	e6ef6076 	uxtb	r6, r6
    8548:	1afffff3 	bne	851c <uintToString+0x58>
    854c:	e2463001 	sub	r3, r6, #1
    8550:	e3a02000 	mov	r2, #0
    8554:	e21330ff 	ands	r3, r3, #255	; 0xff
    8558:	e7c42006 	strb	r2, [r4, r6]
    855c:	0a000009 	beq	8588 <uintToString+0xc4>
    8560:	e7d4c002 	ldrb	ip, [r4, r2]
    8564:	e7d45003 	ldrb	r5, [r4, r3]
    8568:	e2820001 	add	r0, r2, #1
    856c:	e2431001 	sub	r1, r3, #1
    8570:	e7c45002 	strb	r5, [r4, r2]
    8574:	e7c4c003 	strb	ip, [r4, r3]
    8578:	e6ef2070 	uxtb	r2, r0
    857c:	e6ef3071 	uxtb	r3, r1
    8580:	e1530002 	cmp	r3, r2
    8584:	8afffff5 	bhi	8560 <uintToString+0x9c>
    8588:	e3a00000 	mov	r0, #0
    858c:	e6af0070 	sxtb	r0, r0
    8590:	e8bd80f8 	pop	{r3, r4, r5, r6, r7, pc}
    8594:	e205300f 	and	r3, r5, #15
    8598:	e3530009 	cmp	r3, #9
    859c:	92833030 	addls	r3, r3, #48	; 0x30
    85a0:	82833057 	addhi	r3, r3, #87	; 0x57
    85a4:	e7c43006 	strb	r3, [r4, r6]
    85a8:	e1b05225 	lsrs	r5, r5, #4
    85ac:	e2866001 	add	r6, r6, #1
    85b0:	e6ef6076 	uxtb	r6, r6
    85b4:	1afffff6 	bne	8594 <uintToString+0xd0>
    85b8:	eaffffe3 	b	854c <uintToString+0x88>
    85bc:	e3a03030 	mov	r3, #48	; 0x30
    85c0:	e3a00001 	mov	r0, #1
    85c4:	e5c45001 	strb	r5, [r4, #1]
    85c8:	e5c43000 	strb	r3, [r4]
    85cc:	e6af0070 	sxtb	r0, r0
    85d0:	e8bd80f8 	pop	{r3, r4, r5, r6, r7, pc}
    85d4:	e3a000fe 	mov	r0, #254	; 0xfe
    85d8:	eaffffeb 	b	858c <uintToString+0xc8>
    85dc:	e3a000ff 	mov	r0, #255	; 0xff
    85e0:	eaffffe9 	b	858c <uintToString+0xc8>

000085e4 <stringLength>:
    85e4:	e1a02000 	mov	r2, r0
    85e8:	e5d00000 	ldrb	r0, [r0]
    85ec:	e3500000 	cmp	r0, #0
    85f0:	012fff1e 	bxeq	lr
    85f4:	e3a00000 	mov	r0, #0
    85f8:	e2800001 	add	r0, r0, #1
    85fc:	e6ef0070 	uxtb	r0, r0
    8600:	e7d23000 	ldrb	r3, [r2, r0]
    8604:	e3530000 	cmp	r3, #0
    8608:	1afffffa 	bne	85f8 <stringLength+0x14>
    860c:	e12fff1e 	bx	lr

00008610 <searchStringPattern>:
    8610:	e5d13000 	ldrb	r3, [r1]
    8614:	e52d4004 	push	{r4}		; (str r4, [sp, #-4]!)
    8618:	e3530000 	cmp	r3, #0
    861c:	0a000019 	beq	8688 <searchStringPattern+0x78>
    8620:	e5d02000 	ldrb	r2, [r0]
    8624:	e3520000 	cmp	r2, #0
    8628:	0a000012 	beq	8678 <searchStringPattern+0x68>
    862c:	e3a0c000 	mov	ip, #0
    8630:	e1a0400c 	mov	r4, ip
    8634:	ea000002 	b	8644 <searchStringPattern+0x34>
    8638:	e7d0200c 	ldrb	r2, [r0, ip]
    863c:	e3520000 	cmp	r2, #0
    8640:	0a00000d 	beq	867c <searchStringPattern+0x6c>
    8644:	e1530002 	cmp	r3, r2
    8648:	e5f13001 	ldrb	r3, [r1, #1]!
    864c:	028cc001 	addeq	ip, ip, #1
    8650:	13a0c000 	movne	ip, #0
    8654:	e3530000 	cmp	r3, #0
    8658:	e2844001 	add	r4, r4, #1
    865c:	1afffff5 	bne	8638 <searchStringPattern+0x28>
    8660:	e7d0300c 	ldrb	r3, [r0, ip]
    8664:	e3530000 	cmp	r3, #0
    8668:	13a00000 	movne	r0, #0
    866c:	0a000002 	beq	867c <searchStringPattern+0x6c>
    8670:	e49d4004 	pop	{r4}		; (ldr r4, [sp], #4)
    8674:	e12fff1e 	bx	lr
    8678:	e1a04002 	mov	r4, r2
    867c:	e1a00004 	mov	r0, r4
    8680:	e49d4004 	pop	{r4}		; (ldr r4, [sp], #4)
    8684:	e12fff1e 	bx	lr
    8688:	e1a0c003 	mov	ip, r3
    868c:	e1a04003 	mov	r4, r3
    8690:	eafffff2 	b	8660 <searchStringPattern+0x50>

00008694 <strcpy>:
    8694:	e1a02000 	mov	r2, r0
    8698:	e4d13001 	ldrb	r3, [r1], #1
    869c:	e3530000 	cmp	r3, #0
    86a0:	e4c23001 	strb	r3, [r2], #1
    86a4:	1afffffb 	bne	8698 <strcpy+0x4>
    86a8:	e12fff1e 	bx	lr

000086ac <strncpy>:
    86ac:	e3520001 	cmp	r2, #1
    86b0:	912fff1e 	bxls	lr
    86b4:	e5d13000 	ldrb	r3, [r1]
    86b8:	e3530000 	cmp	r3, #0
    86bc:	e5c03000 	strb	r3, [r0]
    86c0:	012fff1e 	bxeq	lr
    86c4:	e242c002 	sub	ip, r2, #2
    86c8:	e081c00c 	add	ip, r1, ip
    86cc:	e1a02000 	mov	r2, r0
    86d0:	e151000c 	cmp	r1, ip
    86d4:	012fff1e 	bxeq	lr
    86d8:	e5f13001 	ldrb	r3, [r1, #1]!
    86dc:	e3530000 	cmp	r3, #0
    86e0:	e5e23001 	strb	r3, [r2, #1]!
    86e4:	1afffff9 	bne	86d0 <strncpy+0x24>
    86e8:	e12fff1e 	bx	lr

000086ec <bgRefresh>:
    86ec:	e92d4010 	push	{r4, lr}
    86f0:	e59f4088 	ldr	r4, [pc, #136]	; 8780 <bgRefresh+0x94>
    86f4:	e5d430fe 	ldrb	r3, [r4, #254]	; 0xfe
    86f8:	e6ef3073 	uxtb	r3, r3
    86fc:	e353002f 	cmp	r3, #47	; 0x2f
    8700:	0a00001b 	beq	8774 <bgRefresh+0x88>
    8704:	9a000015 	bls	8760 <bgRefresh+0x74>
    8708:	e353005c 	cmp	r3, #92	; 0x5c
    870c:	0a000015 	beq	8768 <bgRefresh+0x7c>
    8710:	e353007c 	cmp	r3, #124	; 0x7c
    8714:	1a000008 	bne	873c <bgRefresh+0x50>
    8718:	e5d430ff 	ldrb	r3, [r4, #255]	; 0xff
    871c:	e3530000 	cmp	r3, #0
    8720:	03a0305c 	moveq	r3, #92	; 0x5c
    8724:	13a0302f 	movne	r3, #47	; 0x2f
    8728:	e5c430fe 	strb	r3, [r4, #254]	; 0xfe
    872c:	e5d430ff 	ldrb	r3, [r4, #255]	; 0xff
    8730:	e2733001 	rsbs	r3, r3, #1
    8734:	33a03000 	movcc	r3, #0
    8738:	e5c430ff 	strb	r3, [r4, #255]	; 0xff
    873c:	e59f1040 	ldr	r1, [pc, #64]	; 8784 <bgRefresh+0x98>
    8740:	e3a02038 	mov	r2, #56	; 0x38
    8744:	e3a00020 	mov	r0, #32
    8748:	ebffff0a 	bl	8378 <drawCharacter>
    874c:	e5d400fe 	ldrb	r0, [r4, #254]	; 0xfe
    8750:	e59f102c 	ldr	r1, [pc, #44]	; 8784 <bgRefresh+0x98>
    8754:	e3a02038 	mov	r2, #56	; 0x38
    8758:	e8bd4010 	pop	{r4, lr}
    875c:	eaffff05 	b	8378 <drawCharacter>
    8760:	e353002d 	cmp	r3, #45	; 0x2d
    8764:	1afffff4 	bne	873c <bgRefresh+0x50>
    8768:	e3a0307c 	mov	r3, #124	; 0x7c
    876c:	e5c430fe 	strb	r3, [r4, #254]	; 0xfe
    8770:	eafffff1 	b	873c <bgRefresh+0x50>
    8774:	e3a0302d 	mov	r3, #45	; 0x2d
    8778:	e5c430fe 	strb	r3, [r4, #254]	; 0xfe
    877c:	eaffffee 	b	873c <bgRefresh+0x50>
    8780:	0000a000 	.word	0x0000a000
    8784:	00000438 	.word	0x00000438

00008788 <bgDrawEdges>:
    8788:	e92d43f8 	push	{r3, r4, r5, r6, r7, r8, r9, lr}
    878c:	e1a06000 	mov	r6, r0
    8790:	ebfffe93 	bl	81e4 <RPI_GetFrameBufferDescpr>
    8794:	e3a07000 	mov	r7, #0
    8798:	e1a04000 	mov	r4, r0
    879c:	e5943008 	ldr	r3, [r4, #8]
    87a0:	e3530001 	cmp	r3, #1
    87a4:	0a000009 	beq	87d0 <bgDrawEdges+0x48>
    87a8:	e3a05000 	mov	r5, #0
    87ac:	e1a00005 	mov	r0, r5
    87b0:	e1a01007 	mov	r1, r7
    87b4:	e1a02006 	mov	r2, r6
    87b8:	ebfffee1 	bl	8344 <setPixel>
    87bc:	e5943008 	ldr	r3, [r4, #8]
    87c0:	e2855001 	add	r5, r5, #1
    87c4:	e2433001 	sub	r3, r3, #1
    87c8:	e1530005 	cmp	r3, r5
    87cc:	8afffff6 	bhi	87ac <bgDrawEdges+0x24>
    87d0:	e2877001 	add	r7, r7, #1
    87d4:	e3570007 	cmp	r7, #7
    87d8:	1affffef 	bne	879c <bgDrawEdges+0x14>
    87dc:	e1a08007 	mov	r8, r7
    87e0:	e5943008 	ldr	r3, [r4, #8]
    87e4:	e2433008 	sub	r3, r3, #8
    87e8:	e3530008 	cmp	r3, #8
    87ec:	9a000009 	bls	8818 <bgDrawEdges+0x90>
    87f0:	e3a05008 	mov	r5, #8
    87f4:	e1a00005 	mov	r0, r5
    87f8:	e1a01008 	mov	r1, r8
    87fc:	e3a02000 	mov	r2, #0
    8800:	ebfffecf 	bl	8344 <setPixel>
    8804:	e5943008 	ldr	r3, [r4, #8]
    8808:	e2855001 	add	r5, r5, #1
    880c:	e2433008 	sub	r3, r3, #8
    8810:	e1530005 	cmp	r3, r5
    8814:	8afffff6 	bhi	87f4 <bgDrawEdges+0x6c>
    8818:	e2888001 	add	r8, r8, #1
    881c:	e3580009 	cmp	r8, #9
    8820:	1affffee 	bne	87e0 <bgDrawEdges+0x58>
    8824:	e594900c 	ldr	r9, [r4, #12]
    8828:	e594300c 	ldr	r3, [r4, #12]
    882c:	e2499009 	sub	r9, r9, #9
    8830:	e2433001 	sub	r3, r3, #1
    8834:	e1590003 	cmp	r9, r3
    8838:	2a000011 	bcs	8884 <bgDrawEdges+0xfc>
    883c:	e5943008 	ldr	r3, [r4, #8]
    8840:	e3530001 	cmp	r3, #1
    8844:	0a000009 	beq	8870 <bgDrawEdges+0xe8>
    8848:	e3a05000 	mov	r5, #0
    884c:	e1a00005 	mov	r0, r5
    8850:	e1a01009 	mov	r1, r9
    8854:	e1a02006 	mov	r2, r6
    8858:	ebfffeb9 	bl	8344 <setPixel>
    885c:	e5943008 	ldr	r3, [r4, #8]
    8860:	e2855001 	add	r5, r5, #1
    8864:	e2433001 	sub	r3, r3, #1
    8868:	e1530005 	cmp	r3, r5
    886c:	8afffff6 	bhi	884c <bgDrawEdges+0xc4>
    8870:	e594300c 	ldr	r3, [r4, #12]
    8874:	e2899001 	add	r9, r9, #1
    8878:	e2433001 	sub	r3, r3, #1
    887c:	e1530009 	cmp	r3, r9
    8880:	8affffed 	bhi	883c <bgDrawEdges+0xb4>
    8884:	e594900c 	ldr	r9, [r4, #12]
    8888:	e594300c 	ldr	r3, [r4, #12]
    888c:	e249900b 	sub	r9, r9, #11
    8890:	e2433009 	sub	r3, r3, #9
    8894:	e1590003 	cmp	r9, r3
    8898:	2a000012 	bcs	88e8 <bgDrawEdges+0x160>
    889c:	e5943008 	ldr	r3, [r4, #8]
    88a0:	e2433009 	sub	r3, r3, #9
    88a4:	e3530007 	cmp	r3, #7
    88a8:	9a000009 	bls	88d4 <bgDrawEdges+0x14c>
    88ac:	e3a05007 	mov	r5, #7
    88b0:	e1a00005 	mov	r0, r5
    88b4:	e1a01009 	mov	r1, r9
    88b8:	e3a02000 	mov	r2, #0
    88bc:	ebfffea0 	bl	8344 <setPixel>
    88c0:	e5943008 	ldr	r3, [r4, #8]
    88c4:	e2855001 	add	r5, r5, #1
    88c8:	e2433009 	sub	r3, r3, #9
    88cc:	e1530005 	cmp	r3, r5
    88d0:	8afffff6 	bhi	88b0 <bgDrawEdges+0x128>
    88d4:	e594300c 	ldr	r3, [r4, #12]
    88d8:	e2899001 	add	r9, r9, #1
    88dc:	e2433009 	sub	r3, r3, #9
    88e0:	e1530009 	cmp	r3, r9
    88e4:	8affffec 	bhi	889c <bgDrawEdges+0x114>
    88e8:	e594300c 	ldr	r3, [r4, #12]
    88ec:	e2433009 	sub	r3, r3, #9
    88f0:	e3530007 	cmp	r3, #7
    88f4:	83a09007 	movhi	r9, #7
    88f8:	9a00000c 	bls	8930 <bgDrawEdges+0x1a8>
    88fc:	e3a05000 	mov	r5, #0
    8900:	e1a00005 	mov	r0, r5
    8904:	e1a01009 	mov	r1, r9
    8908:	e2855001 	add	r5, r5, #1
    890c:	e1a02006 	mov	r2, r6
    8910:	ebfffe8b 	bl	8344 <setPixel>
    8914:	e3550005 	cmp	r5, #5
    8918:	1afffff8 	bne	8900 <bgDrawEdges+0x178>
    891c:	e594300c 	ldr	r3, [r4, #12]
    8920:	e2899001 	add	r9, r9, #1
    8924:	e2433009 	sub	r3, r3, #9
    8928:	e1530009 	cmp	r3, r9
    892c:	8afffff2 	bhi	88fc <bgDrawEdges+0x174>
    8930:	e594300c 	ldr	r3, [r4, #12]
    8934:	e243300b 	sub	r3, r3, #11
    8938:	e3530007 	cmp	r3, #7
    893c:	83a05007 	movhi	r5, #7
    8940:	9a00000c 	bls	8978 <bgDrawEdges+0x1f0>
    8944:	e1a01005 	mov	r1, r5
    8948:	e3a00007 	mov	r0, #7
    894c:	e3a02000 	mov	r2, #0
    8950:	ebfffe7b 	bl	8344 <setPixel>
    8954:	e1a01005 	mov	r1, r5
    8958:	e3a00008 	mov	r0, #8
    895c:	e3a02000 	mov	r2, #0
    8960:	ebfffe77 	bl	8344 <setPixel>
    8964:	e594300c 	ldr	r3, [r4, #12]
    8968:	e2855001 	add	r5, r5, #1
    896c:	e243300b 	sub	r3, r3, #11
    8970:	e1530005 	cmp	r3, r5
    8974:	8afffff2 	bhi	8944 <bgDrawEdges+0x1bc>
    8978:	e594300c 	ldr	r3, [r4, #12]
    897c:	e2433009 	sub	r3, r3, #9
    8980:	e3530007 	cmp	r3, #7
    8984:	9a000013 	bls	89d8 <bgDrawEdges+0x250>
    8988:	e5945008 	ldr	r5, [r4, #8]
    898c:	e5943008 	ldr	r3, [r4, #8]
    8990:	e2455009 	sub	r5, r5, #9
    8994:	e2433001 	sub	r3, r3, #1
    8998:	e1550003 	cmp	r5, r3
    899c:	2a000008 	bcs	89c4 <bgDrawEdges+0x23c>
    89a0:	e1a00005 	mov	r0, r5
    89a4:	e1a01007 	mov	r1, r7
    89a8:	e1a02006 	mov	r2, r6
    89ac:	ebfffe64 	bl	8344 <setPixel>
    89b0:	e5943008 	ldr	r3, [r4, #8]
    89b4:	e2855001 	add	r5, r5, #1
    89b8:	e2433001 	sub	r3, r3, #1
    89bc:	e1530005 	cmp	r3, r5
    89c0:	8afffff6 	bhi	89a0 <bgDrawEdges+0x218>
    89c4:	e594300c 	ldr	r3, [r4, #12]
    89c8:	e2877001 	add	r7, r7, #1
    89cc:	e2433009 	sub	r3, r3, #9
    89d0:	e1530007 	cmp	r3, r7
    89d4:	8affffeb 	bhi	8988 <bgDrawEdges+0x200>
    89d8:	e594300c 	ldr	r3, [r4, #12]
    89dc:	e243300b 	sub	r3, r3, #11
    89e0:	e3530009 	cmp	r3, #9
    89e4:	98bd83f8 	popls	{r3, r4, r5, r6, r7, r8, r9, pc}
    89e8:	e5945008 	ldr	r5, [r4, #8]
    89ec:	e5943008 	ldr	r3, [r4, #8]
    89f0:	e245500b 	sub	r5, r5, #11
    89f4:	e2433009 	sub	r3, r3, #9
    89f8:	e1550003 	cmp	r5, r3
    89fc:	2a000008 	bcs	8a24 <bgDrawEdges+0x29c>
    8a00:	e1a00005 	mov	r0, r5
    8a04:	e1a01008 	mov	r1, r8
    8a08:	e3a02000 	mov	r2, #0
    8a0c:	ebfffe4c 	bl	8344 <setPixel>
    8a10:	e5943008 	ldr	r3, [r4, #8]
    8a14:	e2855001 	add	r5, r5, #1
    8a18:	e2433009 	sub	r3, r3, #9
    8a1c:	e1530005 	cmp	r3, r5
    8a20:	8afffff6 	bhi	8a00 <bgDrawEdges+0x278>
    8a24:	e594300c 	ldr	r3, [r4, #12]
    8a28:	e2888001 	add	r8, r8, #1
    8a2c:	e243300b 	sub	r3, r3, #11
    8a30:	e1530008 	cmp	r3, r8
    8a34:	8affffeb 	bhi	89e8 <bgDrawEdges+0x260>
    8a38:	e8bd83f8 	pop	{r3, r4, r5, r6, r7, r8, r9, pc}

00008a3c <bgDrawLogo>:
    8a3c:	e92d4038 	push	{r3, r4, r5, lr}
    8a40:	e59f4154 	ldr	r4, [pc, #340]	; 8b9c <bgDrawLogo+0x160>
    8a44:	e59f5154 	ldr	r5, [pc, #340]	; 8ba0 <bgDrawLogo+0x164>
    8a48:	e3a02048 	mov	r2, #72	; 0x48
    8a4c:	e3a03038 	mov	r3, #56	; 0x38
    8a50:	e5842000 	str	r2, [r4]
    8a54:	e5843004 	str	r3, [r4, #4]
    8a58:	e5942000 	ldr	r2, [r4]
    8a5c:	e1a00005 	mov	r0, r5
    8a60:	e5943004 	ldr	r3, [r4, #4]
    8a64:	e3a01050 	mov	r1, #80	; 0x50
    8a68:	ebfffe6f 	bl	842c <drawString>
    8a6c:	e5943004 	ldr	r3, [r4, #4]
    8a70:	e2850038 	add	r0, r5, #56	; 0x38
    8a74:	e2833010 	add	r3, r3, #16
    8a78:	e5843004 	str	r3, [r4, #4]
    8a7c:	e5942000 	ldr	r2, [r4]
    8a80:	e3a01050 	mov	r1, #80	; 0x50
    8a84:	e5943004 	ldr	r3, [r4, #4]
    8a88:	ebfffe67 	bl	842c <drawString>
    8a8c:	e5941000 	ldr	r1, [r4]
    8a90:	e3a0005c 	mov	r0, #92	; 0x5c
    8a94:	e5942004 	ldr	r2, [r4, #4]
    8a98:	e2811068 	add	r1, r1, #104	; 0x68
    8a9c:	ebfffe35 	bl	8378 <drawCharacter>
    8aa0:	e5941000 	ldr	r1, [r4]
    8aa4:	e3a0005c 	mov	r0, #92	; 0x5c
    8aa8:	e5942004 	ldr	r2, [r4, #4]
    8aac:	e28110e0 	add	r1, r1, #224	; 0xe0
    8ab0:	ebfffe30 	bl	8378 <drawCharacter>
    8ab4:	e5941000 	ldr	r1, [r4]
    8ab8:	e3a0005c 	mov	r0, #92	; 0x5c
    8abc:	e5942004 	ldr	r2, [r4, #4]
    8ac0:	e2811f4a 	add	r1, r1, #296	; 0x128
    8ac4:	ebfffe2b 	bl	8378 <drawCharacter>
    8ac8:	e5943004 	ldr	r3, [r4, #4]
    8acc:	e2850070 	add	r0, r5, #112	; 0x70
    8ad0:	e2833010 	add	r3, r3, #16
    8ad4:	e5843004 	str	r3, [r4, #4]
    8ad8:	e5942000 	ldr	r2, [r4]
    8adc:	e3a01050 	mov	r1, #80	; 0x50
    8ae0:	e5943004 	ldr	r3, [r4, #4]
    8ae4:	ebfffe50 	bl	842c <drawString>
    8ae8:	e5941000 	ldr	r1, [r4]
    8aec:	e3a0005c 	mov	r0, #92	; 0x5c
    8af0:	e5942004 	ldr	r2, [r4, #4]
    8af4:	e2811090 	add	r1, r1, #144	; 0x90
    8af8:	ebfffe1e 	bl	8378 <drawCharacter>
    8afc:	e5941000 	ldr	r1, [r4]
    8b00:	e3a0005c 	mov	r0, #92	; 0x5c
    8b04:	e5942004 	ldr	r2, [r4, #4]
    8b08:	e2811070 	add	r1, r1, #112	; 0x70
    8b0c:	ebfffe19 	bl	8378 <drawCharacter>
    8b10:	e5941000 	ldr	r1, [r4]
    8b14:	e3a0005c 	mov	r0, #92	; 0x5c
    8b18:	e5942004 	ldr	r2, [r4, #4]
    8b1c:	e28110e8 	add	r1, r1, #232	; 0xe8
    8b20:	ebfffe14 	bl	8378 <drawCharacter>
    8b24:	e5943004 	ldr	r3, [r4, #4]
    8b28:	e28500a8 	add	r0, r5, #168	; 0xa8
    8b2c:	e2833020 	add	r3, r3, #32
    8b30:	e5843004 	str	r3, [r4, #4]
    8b34:	e5942000 	ldr	r2, [r4]
    8b38:	e3a01050 	mov	r1, #80	; 0x50
    8b3c:	e5943004 	ldr	r3, [r4, #4]
    8b40:	ebfffe39 	bl	842c <drawString>
    8b44:	e5943004 	ldr	r3, [r4, #4]
    8b48:	e28500bc 	add	r0, r5, #188	; 0xbc
    8b4c:	e2833010 	add	r3, r3, #16
    8b50:	e5843004 	str	r3, [r4, #4]
    8b54:	e5942000 	ldr	r2, [r4]
    8b58:	e3a01050 	mov	r1, #80	; 0x50
    8b5c:	e5943004 	ldr	r3, [r4, #4]
    8b60:	ebfffe31 	bl	842c <drawString>
    8b64:	e5943004 	ldr	r3, [r4, #4]
    8b68:	e28500cc 	add	r0, r5, #204	; 0xcc
    8b6c:	e2833010 	add	r3, r3, #16
    8b70:	e5843004 	str	r3, [r4, #4]
    8b74:	e5942000 	ldr	r2, [r4]
    8b78:	e3a01050 	mov	r1, #80	; 0x50
    8b7c:	e5943004 	ldr	r3, [r4, #4]
    8b80:	ebfffe29 	bl	842c <drawString>
    8b84:	e5941000 	ldr	r1, [r4]
    8b88:	e3a0005c 	mov	r0, #92	; 0x5c
    8b8c:	e5942004 	ldr	r2, [r4, #4]
    8b90:	e2811018 	add	r1, r1, #24
    8b94:	e8bd4038 	pop	{r3, r4, r5, lr}
    8b98:	eafffdf6 	b	8378 <drawCharacter>
    8b9c:	0000a000 	.word	0x0000a000
    8ba0:	0000c000 	.word	0x0000c000

00008ba4 <parseAtags>:
    8ba4:	e92d4070 	push	{r4, r5, r6, lr}
    8ba8:	e59f2174 	ldr	r2, [pc, #372]	; 8d24 <parseAtags+0x180>
    8bac:	e59fc174 	ldr	ip, [pc, #372]	; 8d28 <parseAtags+0x184>
    8bb0:	e59f1174 	ldr	r1, [pc, #372]	; 8d2c <parseAtags+0x188>
    8bb4:	e59f5174 	ldr	r5, [pc, #372]	; 8d30 <parseAtags+0x18c>
    8bb8:	e5903004 	ldr	r3, [r0, #4]
    8bbc:	e1530002 	cmp	r3, r2
    8bc0:	9a000007 	bls	8be4 <parseAtags+0x40>
    8bc4:	e153000c 	cmp	r3, ip
    8bc8:	1a000045 	bne	8ce4 <parseAtags+0x140>
    8bcc:	e5903000 	ldr	r3, [r0]
    8bd0:	e2806008 	add	r6, r0, #8
    8bd4:	e0800103 	add	r0, r0, r3, lsl #2
    8bd8:	e5903004 	ldr	r3, [r0, #4]
    8bdc:	e1530002 	cmp	r3, r2
    8be0:	8afffff7 	bhi	8bc4 <parseAtags+0x20>
    8be4:	e2434355 	sub	r4, r3, #1409286145	; 0x54000001
    8be8:	e1530005 	cmp	r3, r5
    8bec:	e2444841 	sub	r4, r4, #4259840	; 0x410000
    8bf0:	2a000003 	bcs	8c04 <parseAtags+0x60>
    8bf4:	e3530000 	cmp	r3, #0
    8bf8:	0a000001 	beq	8c04 <parseAtags+0x60>
    8bfc:	e3540003 	cmp	r4, #3
    8c00:	88bd8070 	pophi	{r4, r5, r6, pc}
    8c04:	e5904000 	ldr	r4, [r0]
    8c08:	e3530000 	cmp	r3, #0
    8c0c:	e0800104 	add	r0, r0, r4, lsl #2
    8c10:	1affffe8 	bne	8bb8 <parseAtags+0x14>
    8c14:	e59f0118 	ldr	r0, [pc, #280]	; 8d34 <parseAtags+0x190>
    8c18:	e1a01006 	mov	r1, r6
    8c1c:	ebfffe7b 	bl	8610 <searchStringPattern>
    8c20:	e3500000 	cmp	r0, #0
    8c24:	e59f010c 	ldr	r0, [pc, #268]	; 8d38 <parseAtags+0x194>
    8c28:	0a000034 	beq	8d00 <parseAtags+0x15c>
    8c2c:	e3a02028 	mov	r2, #40	; 0x28
    8c30:	e59f10fc 	ldr	r1, [pc, #252]	; 8d34 <parseAtags+0x190>
    8c34:	ebfffe9c 	bl	86ac <strncpy>
    8c38:	e1a01006 	mov	r1, r6
    8c3c:	e59f00f8 	ldr	r0, [pc, #248]	; 8d3c <parseAtags+0x198>
    8c40:	ebfffe72 	bl	8610 <searchStringPattern>
    8c44:	e2501000 	subs	r1, r0, #0
    8c48:	13a02004 	movne	r2, #4
    8c4c:	03a02028 	moveq	r2, #40	; 0x28
    8c50:	10861001 	addne	r1, r6, r1
    8c54:	059f10e4 	ldreq	r1, [pc, #228]	; 8d40 <parseAtags+0x19c>
    8c58:	159f00e4 	ldrne	r0, [pc, #228]	; 8d44 <parseAtags+0x1a0>
    8c5c:	059f00e0 	ldreq	r0, [pc, #224]	; 8d44 <parseAtags+0x1a0>
    8c60:	ebfffe91 	bl	86ac <strncpy>
    8c64:	e1a01006 	mov	r1, r6
    8c68:	e59f00d8 	ldr	r0, [pc, #216]	; 8d48 <parseAtags+0x1a4>
    8c6c:	ebfffe67 	bl	8610 <searchStringPattern>
    8c70:	e2501000 	subs	r1, r0, #0
    8c74:	13a0200a 	movne	r2, #10
    8c78:	03a02028 	moveq	r2, #40	; 0x28
    8c7c:	10861001 	addne	r1, r6, r1
    8c80:	059f10b8 	ldreq	r1, [pc, #184]	; 8d40 <parseAtags+0x19c>
    8c84:	159f00c0 	ldrne	r0, [pc, #192]	; 8d4c <parseAtags+0x1a8>
    8c88:	059f00bc 	ldreq	r0, [pc, #188]	; 8d4c <parseAtags+0x1a8>
    8c8c:	ebfffe86 	bl	86ac <strncpy>
    8c90:	e1a01006 	mov	r1, r6
    8c94:	e59f00b4 	ldr	r0, [pc, #180]	; 8d50 <parseAtags+0x1ac>
    8c98:	ebfffe5c 	bl	8610 <searchStringPattern>
    8c9c:	e2501000 	subs	r1, r0, #0
    8ca0:	10861001 	addne	r1, r6, r1
    8ca4:	059f10a8 	ldreq	r1, [pc, #168]	; 8d54 <parseAtags+0x1b0>
    8ca8:	159f00a8 	ldrne	r0, [pc, #168]	; 8d58 <parseAtags+0x1b4>
    8cac:	13a0200b 	movne	r2, #11
    8cb0:	059f00a0 	ldreq	r0, [pc, #160]	; 8d58 <parseAtags+0x1b4>
    8cb4:	03a02028 	moveq	r2, #40	; 0x28
    8cb8:	ebfffe7b 	bl	86ac <strncpy>
    8cbc:	e1a01006 	mov	r1, r6
    8cc0:	e59f0094 	ldr	r0, [pc, #148]	; 8d5c <parseAtags+0x1b8>
    8cc4:	ebfffe51 	bl	8610 <searchStringPattern>
    8cc8:	e2501000 	subs	r1, r0, #0
    8ccc:	0a00000f 	beq	8d10 <parseAtags+0x16c>
    8cd0:	e0861001 	add	r1, r6, r1
    8cd4:	e59f0084 	ldr	r0, [pc, #132]	; 8d60 <parseAtags+0x1bc>
    8cd8:	e3a02012 	mov	r2, #18
    8cdc:	e8bd4070 	pop	{r4, r5, r6, lr}
    8ce0:	eafffe71 	b	86ac <strncpy>
    8ce4:	e1530001 	cmp	r3, r1
    8ce8:	18bd8070 	popne	{r4, r5, r6, pc}
    8cec:	e5904000 	ldr	r4, [r0]
    8cf0:	e3530000 	cmp	r3, #0
    8cf4:	e0800104 	add	r0, r0, r4, lsl #2
    8cf8:	1affffae 	bne	8bb8 <parseAtags+0x14>
    8cfc:	eaffffc4 	b	8c14 <parseAtags+0x70>
    8d00:	e59f105c 	ldr	r1, [pc, #92]	; 8d64 <parseAtags+0x1c0>
    8d04:	e3a02028 	mov	r2, #40	; 0x28
    8d08:	e8bd4070 	pop	{r4, r5, r6, lr}
    8d0c:	eafffe66 	b	86ac <strncpy>
    8d10:	e59f0048 	ldr	r0, [pc, #72]	; 8d60 <parseAtags+0x1bc>
    8d14:	e59f1024 	ldr	r1, [pc, #36]	; 8d40 <parseAtags+0x19c>
    8d18:	e3a02028 	mov	r2, #40	; 0x28
    8d1c:	e8bd4070 	pop	{r4, r5, r6, lr}
    8d20:	eafffe61 	b	86ac <strncpy>
    8d24:	54410008 	.word	0x54410008
    8d28:	54410009 	.word	0x54410009
    8d2c:	54420005 	.word	0x54420005
    8d30:	54410006 	.word	0x54410006
    8d34:	0000c0e4 	.word	0x0000c0e4
    8d38:	0000a00c 	.word	0x0000a00c
    8d3c:	0000c0ec 	.word	0x0000c0ec
    8d40:	0000c0f8 	.word	0x0000c0f8
    8d44:	0000a034 	.word	0x0000a034
    8d48:	0000c104 	.word	0x0000c104
    8d4c:	0000a0ac 	.word	0x0000a0ac
    8d50:	0000c110 	.word	0x0000c110
    8d54:	0000c118 	.word	0x0000c118
    8d58:	0000a05c 	.word	0x0000a05c
    8d5c:	0000c124 	.word	0x0000c124
    8d60:	0000a084 	.word	0x0000a084
    8d64:	0000c130 	.word	0x0000c130

00008d68 <displayBgInfo>:
    8d68:	e92d41f0 	push	{r4, r5, r6, r7, r8, lr}
    8d6c:	ebfffd1c 	bl	81e4 <RPI_GetFrameBufferDescpr>
    8d70:	e59f21f0 	ldr	r2, [pc, #496]	; 8f68 <displayBgInfo+0x200>
    8d74:	e5903008 	ldr	r3, [r0, #8]
    8d78:	e5907008 	ldr	r7, [r0, #8]
    8d7c:	e590500c 	ldr	r5, [r0, #12]
    8d80:	e0871792 	umull	r1, r7, r2, r7
    8d84:	e1a050a5 	lsr	r5, r5, #1
    8d88:	e6ff5075 	uxth	r5, r5
    8d8c:	e04370a7 	sub	r7, r3, r7, lsr #1
    8d90:	e6ff7077 	uxth	r7, r7
    8d94:	e2853010 	add	r3, r5, #16
    8d98:	e1a02007 	mov	r2, r7
    8d9c:	e6ff3073 	uxth	r3, r3
    8da0:	e3a01064 	mov	r1, #100	; 0x64
    8da4:	e59f01c0 	ldr	r0, [pc, #448]	; 8f6c <displayBgInfo+0x204>
    8da8:	ebfffd9f 	bl	842c <drawString>
    8dac:	e0870100 	add	r0, r7, r0, lsl #2
    8db0:	e6ff4070 	uxth	r4, r0
    8db4:	e2853030 	add	r3, r5, #48	; 0x30
    8db8:	e1a02004 	mov	r2, r4
    8dbc:	e6ff3073 	uxth	r3, r3
    8dc0:	e3a01064 	mov	r1, #100	; 0x64
    8dc4:	e59f01a4 	ldr	r0, [pc, #420]	; 8f70 <displayBgInfo+0x208>
    8dc8:	ebfffd97 	bl	842c <drawString>
    8dcc:	e2853040 	add	r3, r5, #64	; 0x40
    8dd0:	e1a02004 	mov	r2, r4
    8dd4:	e6ff3073 	uxth	r3, r3
    8dd8:	e3a01064 	mov	r1, #100	; 0x64
    8ddc:	e59f0190 	ldr	r0, [pc, #400]	; 8f74 <displayBgInfo+0x20c>
    8de0:	ebfffd91 	bl	842c <drawString>
    8de4:	e2853050 	add	r3, r5, #80	; 0x50
    8de8:	e1a02004 	mov	r2, r4
    8dec:	e6ff3073 	uxth	r3, r3
    8df0:	e3a01064 	mov	r1, #100	; 0x64
    8df4:	e59f017c 	ldr	r0, [pc, #380]	; 8f78 <displayBgInfo+0x210>
    8df8:	ebfffd8b 	bl	842c <drawString>
    8dfc:	e2858090 	add	r8, r5, #144	; 0x90
    8e00:	e2853070 	add	r3, r5, #112	; 0x70
    8e04:	e1a02007 	mov	r2, r7
    8e08:	e6ff8078 	uxth	r8, r8
    8e0c:	e6ff3073 	uxth	r3, r3
    8e10:	e3a01064 	mov	r1, #100	; 0x64
    8e14:	e59f0160 	ldr	r0, [pc, #352]	; 8f7c <displayBgInfo+0x214>
    8e18:	ebfffd83 	bl	842c <drawString>
    8e1c:	e1a02004 	mov	r2, r4
    8e20:	e1a03008 	mov	r3, r8
    8e24:	e3a01064 	mov	r1, #100	; 0x64
    8e28:	e59f0150 	ldr	r0, [pc, #336]	; 8f80 <displayBgInfo+0x218>
    8e2c:	ebfffd7e 	bl	842c <drawString>
    8e30:	e59f614c 	ldr	r6, [pc, #332]	; 8f84 <displayBgInfo+0x21c>
    8e34:	e0842180 	add	r2, r4, r0, lsl #3
    8e38:	e1a03008 	mov	r3, r8
    8e3c:	e28580a0 	add	r8, r5, #160	; 0xa0
    8e40:	e6ff8078 	uxth	r8, r8
    8e44:	e6ff2072 	uxth	r2, r2
    8e48:	e1a00006 	mov	r0, r6
    8e4c:	e3a01028 	mov	r1, #40	; 0x28
    8e50:	ebfffd75 	bl	842c <drawString>
    8e54:	e1a02004 	mov	r2, r4
    8e58:	e1a03008 	mov	r3, r8
    8e5c:	e3a01064 	mov	r1, #100	; 0x64
    8e60:	e59f0120 	ldr	r0, [pc, #288]	; 8f88 <displayBgInfo+0x220>
    8e64:	ebfffd70 	bl	842c <drawString>
    8e68:	e1a03008 	mov	r3, r8
    8e6c:	e0842180 	add	r2, r4, r0, lsl #3
    8e70:	e28580b0 	add	r8, r5, #176	; 0xb0
    8e74:	e6ff8078 	uxth	r8, r8
    8e78:	e6ff2072 	uxth	r2, r2
    8e7c:	e2860028 	add	r0, r6, #40	; 0x28
    8e80:	e3a01028 	mov	r1, #40	; 0x28
    8e84:	ebfffd68 	bl	842c <drawString>
    8e88:	e1a02004 	mov	r2, r4
    8e8c:	e1a03008 	mov	r3, r8
    8e90:	e3a01064 	mov	r1, #100	; 0x64
    8e94:	e59f00f0 	ldr	r0, [pc, #240]	; 8f8c <displayBgInfo+0x224>
    8e98:	ebfffd63 	bl	842c <drawString>
    8e9c:	e1a03008 	mov	r3, r8
    8ea0:	e0842180 	add	r2, r4, r0, lsl #3
    8ea4:	e28580c0 	add	r8, r5, #192	; 0xc0
    8ea8:	e6ff8078 	uxth	r8, r8
    8eac:	e6ff2072 	uxth	r2, r2
    8eb0:	e2860050 	add	r0, r6, #80	; 0x50
    8eb4:	e3a01028 	mov	r1, #40	; 0x28
    8eb8:	ebfffd5b 	bl	842c <drawString>
    8ebc:	e1a02004 	mov	r2, r4
    8ec0:	e1a03008 	mov	r3, r8
    8ec4:	e3a01064 	mov	r1, #100	; 0x64
    8ec8:	e59f00c0 	ldr	r0, [pc, #192]	; 8f90 <displayBgInfo+0x228>
    8ecc:	ebfffd56 	bl	842c <drawString>
    8ed0:	e0842180 	add	r2, r4, r0, lsl #3
    8ed4:	e1a03008 	mov	r3, r8
    8ed8:	e6ff2072 	uxth	r2, r2
    8edc:	e2860078 	add	r0, r6, #120	; 0x78
    8ee0:	e3a01028 	mov	r1, #40	; 0x28
    8ee4:	ebfffd50 	bl	842c <drawString>
    8ee8:	e28580e0 	add	r8, r5, #224	; 0xe0
    8eec:	e28530d0 	add	r3, r5, #208	; 0xd0
    8ef0:	e1a02004 	mov	r2, r4
    8ef4:	e6ff8078 	uxth	r8, r8
    8ef8:	e6ff3073 	uxth	r3, r3
    8efc:	e3a01064 	mov	r1, #100	; 0x64
    8f00:	e59f008c 	ldr	r0, [pc, #140]	; 8f94 <displayBgInfo+0x22c>
    8f04:	ebfffd48 	bl	842c <drawString>
    8f08:	e1a02004 	mov	r2, r4
    8f0c:	e1a03008 	mov	r3, r8
    8f10:	e3a01064 	mov	r1, #100	; 0x64
    8f14:	e59f007c 	ldr	r0, [pc, #124]	; 8f98 <displayBgInfo+0x230>
    8f18:	ebfffd43 	bl	842c <drawString>
    8f1c:	e0842180 	add	r2, r4, r0, lsl #3
    8f20:	e1a03008 	mov	r3, r8
    8f24:	e6ff2072 	uxth	r2, r2
    8f28:	e28600a0 	add	r0, r6, #160	; 0xa0
    8f2c:	e3a01028 	mov	r1, #40	; 0x28
    8f30:	ebfffd3d 	bl	842c <drawString>
    8f34:	e2853c01 	add	r3, r5, #256	; 0x100
    8f38:	e1a02007 	mov	r2, r7
    8f3c:	e6ff3073 	uxth	r3, r3
    8f40:	e3a01064 	mov	r1, #100	; 0x64
    8f44:	e59f0050 	ldr	r0, [pc, #80]	; 8f9c <displayBgInfo+0x234>
    8f48:	ebfffd37 	bl	842c <drawString>
    8f4c:	e2853e12 	add	r3, r5, #288	; 0x120
    8f50:	e1a02004 	mov	r2, r4
    8f54:	e6ff3073 	uxth	r3, r3
    8f58:	e59f0040 	ldr	r0, [pc, #64]	; 8fa0 <displayBgInfo+0x238>
    8f5c:	e3a01064 	mov	r1, #100	; 0x64
    8f60:	e8bd41f0 	pop	{r4, r5, r6, r7, r8, lr}
    8f64:	eafffd30 	b	842c <drawString>
    8f68:	aaaaaaab 	.word	0xaaaaaaab
    8f6c:	0000c154 	.word	0x0000c154
    8f70:	0000c16c 	.word	0x0000c16c
    8f74:	0000c184 	.word	0x0000c184
    8f78:	0000c1a0 	.word	0x0000c1a0
    8f7c:	0000c1b4 	.word	0x0000c1b4
    8f80:	0000c1cc 	.word	0x0000c1cc
    8f84:	0000a00c 	.word	0x0000a00c
    8f88:	0000c1dc 	.word	0x0000c1dc
    8f8c:	0000c1e8 	.word	0x0000c1e8
    8f90:	0000c1f8 	.word	0x0000c1f8
    8f94:	0000c200 	.word	0x0000c200
    8f98:	0000c20c 	.word	0x0000c20c
    8f9c:	0000c220 	.word	0x0000c220
    8fa0:	0000c22c 	.word	0x0000c22c

00008fa4 <bgInit>:
    8fa4:	e92d4038 	push	{r3, r4, r5, lr}
    8fa8:	e59f104c 	ldr	r1, [pc, #76]	; 8ffc <bgInit+0x58>
    8fac:	e59f404c 	ldr	r4, [pc, #76]	; 9000 <bgInit+0x5c>
    8fb0:	e3a0207c 	mov	r2, #124	; 0x7c
    8fb4:	e3a03000 	mov	r3, #0
    8fb8:	e1c41fbc 	strh	r1, [r4, #252]	; 0xfc
    8fbc:	e5c420fe 	strb	r2, [r4, #254]	; 0xfe
    8fc0:	e5c430ff 	strb	r3, [r4, #255]	; 0xff
    8fc4:	e1d43fbc 	ldrh	r3, [r4, #252]	; 0xfc
    8fc8:	e1a05000 	mov	r5, r0
    8fcc:	e1a00003 	mov	r0, r3
    8fd0:	ebfffc86 	bl	81f0 <paintEntireScreen>
    8fd4:	e59f0028 	ldr	r0, [pc, #40]	; 9004 <bgInit+0x60>
    8fd8:	ebfffdea 	bl	8788 <bgDrawEdges>
    8fdc:	e59f0024 	ldr	r0, [pc, #36]	; 9008 <bgInit+0x64>
    8fe0:	ebfffe95 	bl	8a3c <bgDrawLogo>
    8fe4:	e1a00005 	mov	r0, r5
    8fe8:	ebfffeed 	bl	8ba4 <parseAtags>
    8fec:	ebffff5d 	bl	8d68 <displayBgInfo>
    8ff0:	e3a030f0 	mov	r3, #240	; 0xf0
    8ff4:	e5843004 	str	r3, [r4, #4]
    8ff8:	e8bd8038 	pop	{r3, r4, r5, pc}
    8ffc:	00002844 	.word	0x00002844
    9000:	0000a000 	.word	0x0000a000
    9004:	0000c618 	.word	0x0000c618
    9008:	0000afe5 	.word	0x0000afe5
Raw dump of debug contents of section .debug_line:

  Offset:                      0x0
  Length:                      62
  DWARF Version:               2
  Prologue Length:             36
  Minimum Instruction Length:  2
  Initial value of 'is_stmt':  1
  Line Base:                   -5
  Line Range:                  14
  Opcode Base:                 13

 Opcodes:
  Opcode 1 has 0 args
  Opcode 2 has 1 args
  Opcode 3 has 1 args
  Opcode 4 has 1 args
  Opcode 5 has 1 args
  Opcode 6 has 0 args
  Opcode 7 has 0 args
  Opcode 8 has 0 args
  Opcode 9 has 1 args
  Opcode 10 has 0 args
  Opcode 11 has 0 args
  Opcode 12 has 1 args

 The Directory Table (offset 0x1b):
  1	source

 The File Name Table (offset 0x23):
  Entry	Dir	Time	Size	Name
  1	1	0	0	boot.S

 Line Number Statements:
  [0x0000002e]  Extended opcode 2: set Address to 0x8000
  [0x00000035]  Special opcode 10: advance Address by 0 to 0x8000 and Line by 5 to 6
  [0x00000036]  Special opcode 35: advance Address by 4 to 0x8004 and Line by 2 to 8
  [0x00000037]  Special opcode 34: advance Address by 4 to 0x8008 and Line by 1 to 9
  [0x00000038]  Special opcode 34: advance Address by 4 to 0x800c and Line by 1 to 10
  [0x00000039]  Special opcode 34: advance Address by 4 to 0x8010 and Line by 1 to 11
  [0x0000003a]  Special opcode 35: advance Address by 4 to 0x8014 and Line by 2 to 13
  [0x0000003b]  Special opcode 35: advance Address by 4 to 0x8018 and Line by 2 to 15
  [0x0000003c]  Special opcode 38: advance Address by 4 to 0x801c and Line by 5 to 20
  [0x0000003d]  Advance PC by 4 to 0x8020
  [0x0000003f]  Extended opcode 1: End of Sequence


  Offset:                      0x42
  Length:                      124
  DWARF Version:               2
  Prologue Length:             46
  Minimum Instruction Length:  2
  Initial value of 'is_stmt':  1
  Line Base:                   -5
  Line Range:                  14
  Opcode Base:                 13

 Opcodes:
  Opcode 1 has 0 args
  Opcode 2 has 1 args
  Opcode 3 has 1 args
  Opcode 4 has 1 args
  Opcode 5 has 1 args
  Opcode 6 has 0 args
  Opcode 7 has 0 args
  Opcode 8 has 0 args
  Opcode 9 has 1 args
  Opcode 10 has 0 args
  Opcode 11 has 0 args
  Opcode 12 has 1 args

 The Directory Table (offset 0x5d):
  1	source

 The File Name Table (offset 0x65):
  Entry	Dir	Time	Size	Name
  1	1	0	0	rpi-gpuMailbox.S

 Line Number Statements:
  [0x0000007a]  Extended opcode 2: set Address to 0x805c
  [0x00000081]  Special opcode 7: advance Address by 0 to 0x805c and Line by 2 to 3
  [0x00000082]  Special opcode 34: advance Address by 4 to 0x8060 and Line by 1 to 4
  [0x00000083]  Special opcode 34: advance Address by 4 to 0x8064 and Line by 1 to 5
  [0x00000084]  Special opcode 34: advance Address by 4 to 0x8068 and Line by 1 to 6
  [0x00000085]  Special opcode 39: advance Address by 4 to 0x806c and Line by 6 to 12
  [0x00000086]  Special opcode 34: advance Address by 4 to 0x8070 and Line by 1 to 13
  [0x00000087]  Special opcode 34: advance Address by 4 to 0x8074 and Line by 1 to 14
  [0x00000088]  Special opcode 40: advance Address by 4 to 0x8078 and Line by 7 to 21
  [0x00000089]  Special opcode 35: advance Address by 4 to 0x807c and Line by 2 to 23
  [0x0000008a]  Special opcode 35: advance Address by 4 to 0x8080 and Line by 2 to 25
  [0x0000008b]  Special opcode 37: advance Address by 4 to 0x8084 and Line by 4 to 29
  [0x0000008c]  Special opcode 38: advance Address by 4 to 0x8088 and Line by 5 to 34
  [0x0000008d]  Special opcode 36: advance Address by 4 to 0x808c and Line by 3 to 37
  [0x0000008e]  Special opcode 39: advance Address by 4 to 0x8090 and Line by 6 to 43
  [0x0000008f]  Special opcode 34: advance Address by 4 to 0x8094 and Line by 1 to 44
  [0x00000090]  Special opcode 36: advance Address by 4 to 0x8098 and Line by 3 to 47
  [0x00000091]  Special opcode 34: advance Address by 4 to 0x809c and Line by 1 to 48
  [0x00000092]  Special opcode 34: advance Address by 4 to 0x80a0 and Line by 1 to 49
  [0x00000093]  Special opcode 39: advance Address by 4 to 0x80a4 and Line by 6 to 55
  [0x00000094]  Special opcode 35: advance Address by 4 to 0x80a8 and Line by 2 to 57
  [0x00000095]  Special opcode 35: advance Address by 4 to 0x80ac and Line by 2 to 59
  [0x00000096]  Special opcode 38: advance Address by 4 to 0x80b0 and Line by 5 to 64
  [0x00000097]  Special opcode 38: advance Address by 4 to 0x80b4 and Line by 5 to 69
  [0x00000098]  Special opcode 34: advance Address by 4 to 0x80b8 and Line by 1 to 70
  [0x00000099]  Special opcode 35: advance Address by 4 to 0x80bc and Line by 2 to 72
  [0x0000009a]  Special opcode 39: advance Address by 4 to 0x80c0 and Line by 6 to 78
  [0x0000009b]  Special opcode 35: advance Address by 4 to 0x80c4 and Line by 2 to 80
  [0x0000009c]  Advance Line by 9 to 89
  [0x0000009e]  Special opcode 33: advance Address by 4 to 0x80c8 and Line by 0 to 89
  [0x0000009f]  Special opcode 34: advance Address by 4 to 0x80cc and Line by 1 to 90
  [0x000000a0]  Special opcode 34: advance Address by 4 to 0x80d0 and Line by 1 to 91
  [0x000000a1]  Special opcode 35: advance Address by 4 to 0x80d4 and Line by 2 to 93
  [0x000000a2]  Special opcode 34: advance Address by 4 to 0x80d8 and Line by 1 to 94
  [0x000000a3]  Special opcode 37: advance Address by 4 to 0x80dc and Line by 4 to 98
  [0x000000a4]  Special opcode 35: advance Address by 4 to 0x80e0 and Line by 2 to 100
  [0x000000a5]  Special opcode 34: advance Address by 4 to 0x80e4 and Line by 1 to 101
  [0x000000a6]  Special opcode 34: advance Address by 4 to 0x80e8 and Line by 1 to 102
  [0x000000a7]  Special opcode 34: advance Address by 4 to 0x80ec and Line by 1 to 103
  [0x000000a8]  Special opcode 34: advance Address by 4 to 0x80f0 and Line by 1 to 104
  [0x000000a9]  Special opcode 34: advance Address by 4 to 0x80f4 and Line by 1 to 105
  [0x000000aa]  Special opcode 40: advance Address by 4 to 0x80f8 and Line by 7 to 112
  [0x000000ab]  Special opcode 34: advance Address by 4 to 0x80fc and Line by 1 to 113
  [0x000000ac]  Special opcode 34: advance Address by 4 to 0x8100 and Line by 1 to 114
  [0x000000ad]  Special opcode 34: advance Address by 4 to 0x8104 and Line by 1 to 115
  [0x000000ae]  Special opcode 37: advance Address by 4 to 0x8108 and Line by 4 to 119
  [0x000000af]  Special opcode 34: advance Address by 4 to 0x810c and Line by 1 to 120
  [0x000000b0]  Special opcode 37: advance Address by 4 to 0x8110 and Line by 4 to 124
  [0x000000b1]  Special opcode 34: advance Address by 4 to 0x8114 and Line by 1 to 125
  [0x000000b2]  Special opcode 34: advance Address by 4 to 0x8118 and Line by 1 to 126
  [0x000000b3]  Special opcode 37: advance Address by 4 to 0x811c and Line by 4 to 130
  [0x000000b4]  Special opcode 34: advance Address by 4 to 0x8120 and Line by 1 to 131
  [0x000000b5]  Advance Line by -117 to 14
  [0x000000b8]  Special opcode 33: advance Address by 4 to 0x8124 and Line by 0 to 14
  [0x000000b9]  Advance Line by 86 to 100
  [0x000000bc]  Special opcode 33: advance Address by 4 to 0x8128 and Line by 0 to 100
  [0x000000bd]  Advance PC by 4 to 0x812c
  [0x000000bf]  Extended opcode 1: End of Sequence


  Offset:                      0xc2
  Length:                      76
  DWARF Version:               2
  Prologue Length:             41
  Minimum Instruction Length:  2
  Initial value of 'is_stmt':  1
  Line Base:                   -5
  Line Range:                  14
  Opcode Base:                 13

 Opcodes:
  Opcode 1 has 0 args
  Opcode 2 has 1 args
  Opcode 3 has 1 args
  Opcode 4 has 1 args
  Opcode 5 has 1 args
  Opcode 6 has 0 args
  Opcode 7 has 0 args
  Opcode 8 has 0 args
  Opcode 9 has 1 args
  Opcode 10 has 0 args
  Opcode 11 has 0 args
  Opcode 12 has 1 args

 The Directory Table (offset 0xdd):
  1	source

 The File Name Table (offset 0xe5):
  Entry	Dir	Time	Size	Name
  1	1	0	0	divisions.S

 Line Number Statements:
  [0x000000f5]  Extended opcode 2: set Address to 0x812c
  [0x000000fc]  Advance Line by 41 to 42
  [0x000000fe]  Copy
  [0x000000ff]  Special opcode 34: advance Address by 4 to 0x8130 and Line by 1 to 43
  [0x00000100]  Special opcode 35: advance Address by 4 to 0x8134 and Line by 2 to 45
  [0x00000101]  Special opcode 34: advance Address by 4 to 0x8138 and Line by 1 to 46
  [0x00000102]  Special opcode 34: advance Address by 4 to 0x813c and Line by 1 to 47
  [0x00000103]  Special opcode 35: advance Address by 4 to 0x8140 and Line by 2 to 49
  [0x00000104]  Special opcode 36: advance Address by 4 to 0x8144 and Line by 3 to 52
  [0x00000105]  Special opcode 34: advance Address by 4 to 0x8148 and Line by 1 to 53
  [0x00000106]  Special opcode 34: advance Address by 4 to 0x814c and Line by 1 to 54
  [0x00000107]  Special opcode 36: advance Address by 4 to 0x8150 and Line by 3 to 57
  [0x00000108]  Special opcode 34: advance Address by 4 to 0x8154 and Line by 1 to 58
  [0x00000109]  Special opcode 34: advance Address by 4 to 0x8158 and Line by 1 to 59
  [0x0000010a]  Special opcode 40: advance Address by 4 to 0x815c and Line by 7 to 66
  [0x0000010b]  Special opcode 34: advance Address by 4 to 0x8160 and Line by 1 to 67
  [0x0000010c]  Special opcode 35: advance Address by 4 to 0x8164 and Line by 2 to 69
  [0x0000010d]  Advance PC by 4 to 0x8168
  [0x0000010f]  Extended opcode 1: End of Sequence


  Offset:                      0x112
  Length:                      202
  DWARF Version:               2
  Prologue Length:             151
  Minimum Instruction Length:  2
  Initial value of 'is_stmt':  1
  Line Base:                   -5
  Line Range:                  14
  Opcode Base:                 13

 Opcodes:
  Opcode 1 has 0 args
  Opcode 2 has 1 args
  Opcode 3 has 1 args
  Opcode 4 has 1 args
  Opcode 5 has 1 args
  Opcode 6 has 0 args
  Opcode 7 has 0 args
  Opcode 8 has 0 args
  Opcode 9 has 1 args
  Opcode 10 has 0 args
  Opcode 11 has 0 args
  Opcode 12 has 1 args

 The Directory Table (offset 0x12d):
  1	source
  2	/usr/include/newlib/machine
  3	/usr/include/newlib

 The File Name Table (offset 0x165):
  Entry	Dir	Time	Size	Name
  1	1	0	0	program.c
  2	2	0	0	_default_types.h
  3	3	0	0	stdint.h
  4	1	0	0	rpi-systimer.h
  5	1	0	0	rpi-gpio.h

 Line Number Statements:
  [0x000001b3]  Extended opcode 2: set Address to 0x8020
  [0x000001ba]  Special opcode 12: advance Address by 0 to 0x8020 and Line by 7 to 8
  [0x000001bb]  Special opcode 62: advance Address by 8 to 0x8028 and Line by 1 to 9
  [0x000001bc]  Special opcode 34: advance Address by 4 to 0x802c and Line by 1 to 10
  [0x000001bd]  Extended opcode 4: set Discriminator to 1
  [0x000001c1]  Special opcode 63: advance Address by 8 to 0x8034 and Line by 2 to 12
  [0x000001c2]  Extended opcode 4: set Discriminator to 1
  [0x000001c6]  Special opcode 34: advance Address by 4 to 0x8038 and Line by 1 to 13
  [0x000001c7]  Extended opcode 4: set Discriminator to 1
  [0x000001cb]  Special opcode 34: advance Address by 4 to 0x803c and Line by 1 to 14
  [0x000001cc]  Extended opcode 4: set Discriminator to 1
  [0x000001d0]  Special opcode 62: advance Address by 8 to 0x8044 and Line by 1 to 15
  [0x000001d1]  Extended opcode 4: set Discriminator to 1
  [0x000001d5]  Special opcode 34: advance Address by 4 to 0x8048 and Line by 1 to 16
  [0x000001d6]  Extended opcode 4: set Discriminator to 1
  [0x000001da]  Special opcode 34: advance Address by 4 to 0x804c and Line by 1 to 17
  [0x000001db]  Advance PC by 16 to 0x805c
  [0x000001dd]  Extended opcode 1: End of Sequence


  Offset:                      0x1e0
  Length:                      64
  DWARF Version:               2
  Prologue Length:             40
  Minimum Instruction Length:  2
  Initial value of 'is_stmt':  1
  Line Base:                   -5
  Line Range:                  14
  Opcode Base:                 13

 Opcodes:
  Opcode 1 has 0 args
  Opcode 2 has 1 args
  Opcode 3 has 1 args
  Opcode 4 has 1 args
  Opcode 5 has 1 args
  Opcode 6 has 0 args
  Opcode 7 has 0 args
  Opcode 8 has 0 args
  Opcode 9 has 1 args
  Opcode 10 has 0 args
  Opcode 11 has 0 args
  Opcode 12 has 1 args

 The Directory Table (offset 0x1fb):
  1	source

 The File Name Table (offset 0x203):
  Entry	Dir	Time	Size	Name
  1	1	0	0	rpi-gpio.c

 Line Number Statements:
  [0x00000212]  Extended opcode 2: set Address to 0x8168
  [0x00000219]  Special opcode 9: advance Address by 0 to 0x8168 and Line by 4 to 5
  [0x0000021a]  Special opcode 6: advance Address by 0 to 0x8168 and Line by 1 to 6
  [0x0000021b]  Special opcode 176: advance Address by 24 to 0x8180 and Line by 3 to 9
  [0x0000021c]  Special opcode 6: advance Address by 0 to 0x8180 and Line by 1 to 10
  [0x0000021d]  Special opcode 149: advance Address by 20 to 0x8194 and Line by 4 to 14
  [0x0000021e]  Special opcode 6: advance Address by 0 to 0x8194 and Line by 1 to 15
  [0x0000021f]  Advance PC by 20 to 0x81a8
  [0x00000221]  Extended opcode 1: End of Sequence


  Offset:                      0x224
  Length:                      172
  DWARF Version:               2
  Prologue Length:             142
  Minimum Instruction Length:  2
  Initial value of 'is_stmt':  1
  Line Base:                   -5
  Line Range:                  14
  Opcode Base:                 13

 Opcodes:
  Opcode 1 has 0 args
  Opcode 2 has 1 args
  Opcode 3 has 1 args
  Opcode 4 has 1 args
  Opcode 5 has 1 args
  Opcode 6 has 0 args
  Opcode 7 has 0 args
  Opcode 8 has 0 args
  Opcode 9 has 1 args
  Opcode 10 has 0 args
  Opcode 11 has 0 args
  Opcode 12 has 1 args

 The Directory Table (offset 0x23f):
  1	source
  2	/usr/include/newlib/machine
  3	/usr/include/newlib

 The File Name Table (offset 0x277):
  Entry	Dir	Time	Size	Name
  1	1	0	0	rpi-systimer.c
  2	2	0	0	_default_types.h
  3	3	0	0	stdint.h
  4	1	0	0	rpi-systimer.h

 Line Number Statements:
  [0x000002bc]  Extended opcode 2: set Address to 0x81a8
  [0x000002c3]  Special opcode 10: advance Address by 0 to 0x81a8 and Line by 5 to 6
  [0x000002c4]  Special opcode 7: advance Address by 0 to 0x81a8 and Line by 2 to 8
  [0x000002c5]  Special opcode 92: advance Address by 12 to 0x81b4 and Line by 3 to 11
  [0x000002c6]  Special opcode 6: advance Address by 0 to 0x81b4 and Line by 1 to 12
  [0x000002c7]  Special opcode 32: advance Address by 4 to 0x81b8 and Line by -1 to 11
  [0x000002c8]  Special opcode 34: advance Address by 4 to 0x81bc and Line by 1 to 12
  [0x000002c9]  Extended opcode 4: set Discriminator to 1
  [0x000002cd]  Special opcode 63: advance Address by 8 to 0x81c4 and Line by 2 to 14
  [0x000002ce]  Special opcode 146: advance Address by 20 to 0x81d8 and Line by 1 to 15
  [0x000002cf]  Advance PC by 12 to 0x81e4
  [0x000002d1]  Extended opcode 1: End of Sequence


  Offset:                      0x2d4
  Length:                      447
  DWARF Version:               2
  Prologue Length:             146
  Minimum Instruction Length:  2
  Initial value of 'is_stmt':  1
  Line Base:                   -5
  Line Range:                  14
  Opcode Base:                 13

 Opcodes:
  Opcode 1 has 0 args
  Opcode 2 has 1 args
  Opcode 3 has 1 args
  Opcode 4 has 1 args
  Opcode 5 has 1 args
  Opcode 6 has 0 args
  Opcode 7 has 0 args
  Opcode 8 has 0 args
  Opcode 9 has 1 args
  Opcode 10 has 0 args
  Opcode 11 has 0 args
  Opcode 12 has 1 args

 The Directory Table (offset 0x2ef):
  1	source
  2	/usr/include/newlib/machine
  3	/usr/include/newlib

 The File Name Table (offset 0x327):
  Entry	Dir	Time	Size	Name
  1	1	0	0	gpuFrameBuffer.c
  2	2	0	0	_default_types.h
  3	3	0	0	stdint.h
  4	1	0	0	gpuFrameBuffer.h

 Line Number Statements:
  [0x00000370]  Extended opcode 2: set Address to 0x81e4
  [0x00000377]  Advance Line by 12 to 13
  [0x00000379]  Copy
  [0x0000037a]  Special opcode 9: advance Address by 0 to 0x81e4 and Line by 4 to 17
  [0x0000037b]  Special opcode 91: advance Address by 12 to 0x81f0 and Line by 2 to 19
  [0x0000037c]  Special opcode 7: advance Address by 0 to 0x81f0 and Line by 2 to 21
  [0x0000037d]  Special opcode 31: advance Address by 4 to 0x81f4 and Line by -2 to 19
  [0x0000037e]  Special opcode 35: advance Address by 4 to 0x81f8 and Line by 2 to 21
  [0x0000037f]  Special opcode 35: advance Address by 4 to 0x81fc and Line by 2 to 23
  [0x00000380]  Extended opcode 4: set Discriminator to 1
  [0x00000384]  Special opcode 118: advance Address by 16 to 0x820c and Line by 1 to 24
  [0x00000385]  Set is_stmt to 0
  [0x00000386]  Special opcode 89: advance Address by 12 to 0x8218 and Line by 0 to 24
  [0x00000387]  Extended opcode 4: set Discriminator to 2
  [0x0000038b]  Special opcode 33: advance Address by 4 to 0x821c and Line by 0 to 24
  [0x0000038c]  Extended opcode 4: set Discriminator to 2
  [0x00000390]  Set is_stmt to 1
  [0x00000391]  Special opcode 90: advance Address by 12 to 0x8228 and Line by 1 to 25
  [0x00000392]  Extended opcode 4: set Discriminator to 2
  [0x00000396]  Special opcode 32: advance Address by 4 to 0x822c and Line by -1 to 24
  [0x00000397]  Special opcode 32: advance Address by 4 to 0x8230 and Line by -1 to 23
  [0x00000398]  Special opcode 120: advance Address by 16 to 0x8240 and Line by 3 to 26
  [0x00000399]  Special opcode 91: advance Address by 12 to 0x824c and Line by 2 to 28
  [0x0000039a]  Special opcode 61: advance Address by 8 to 0x8254 and Line by 0 to 28
  [0x0000039b]  Special opcode 40: advance Address by 4 to 0x8258 and Line by 7 to 35
  [0x0000039c]  Advance Line by -7 to 28
  [0x0000039e]  Special opcode 33: advance Address by 4 to 0x825c and Line by 0 to 28
  [0x0000039f]  Special opcode 40: advance Address by 4 to 0x8260 and Line by 7 to 35
  [0x000003a0]  Extended opcode 4: set Discriminator to 1
  [0x000003a4]  Set is_stmt to 0
  [0x000003a5]  Special opcode 33: advance Address by 4 to 0x8264 and Line by 0 to 35
  [0x000003a6]  Extended opcode 4: set Discriminator to 1
  [0x000003aa]  Set is_stmt to 1
  [0x000003ab]  Special opcode 34: advance Address by 4 to 0x8268 and Line by 1 to 36
  [0x000003ac]  Extended opcode 4: set Discriminator to 3
  [0x000003b0]  Special opcode 34: advance Address by 4 to 0x826c and Line by 1 to 37
  [0x000003b1]  Extended opcode 4: set Discriminator to 1
  [0x000003b5]  Special opcode 62: advance Address by 8 to 0x8274 and Line by 1 to 38
  [0x000003b6]  Extended opcode 4: set Discriminator to 1
  [0x000003ba]  Special opcode 32: advance Address by 4 to 0x8278 and Line by -1 to 37
  [0x000003bb]  Extended opcode 4: set Discriminator to 1
  [0x000003bf]  Special opcode 34: advance Address by 4 to 0x827c and Line by 1 to 38
  [0x000003c0]  Extended opcode 4: set Discriminator to 3
  [0x000003c4]  Special opcode 35: advance Address by 4 to 0x8280 and Line by 2 to 40
  [0x000003c5]  Extended opcode 4: set Discriminator to 3
  [0x000003c9]  Special opcode 32: advance Address by 4 to 0x8284 and Line by -1 to 39
  [0x000003ca]  Extended opcode 4: set Discriminator to 3
  [0x000003ce]  Special opcode 118: advance Address by 16 to 0x8294 and Line by 1 to 40
  [0x000003cf]  Extended opcode 4: set Discriminator to 3
  [0x000003d3]  Advance Line by 27 to 67
  [0x000003d5]  Special opcode 33: advance Address by 4 to 0x8298 and Line by 0 to 67
  [0x000003d6]  Extended opcode 4: set Discriminator to 3
  [0x000003da]  Advance Line by -23 to 44
  [0x000003dc]  Special opcode 33: advance Address by 4 to 0x829c and Line by 0 to 44
  [0x000003dd]  Extended opcode 4: set Discriminator to 2
  [0x000003e1]  Special opcode 85: advance Address by 12 to 0x82a8 and Line by -4 to 40
  [0x000003e2]  Advance Line by 27 to 67
  [0x000003e4]  Special opcode 61: advance Address by 8 to 0x82b0 and Line by 0 to 67
  [0x000003e5]  Special opcode 120: advance Address by 16 to 0x82c0 and Line by 3 to 70
  [0x000003e6]  Special opcode 30: advance Address by 4 to 0x82c4 and Line by -3 to 67
  [0x000003e7]  Special opcode 36: advance Address by 4 to 0x82c8 and Line by 3 to 70
  [0x000003e8]  Special opcode 34: advance Address by 4 to 0x82cc and Line by 1 to 71
  [0x000003e9]  Special opcode 34: advance Address by 4 to 0x82d0 and Line by 1 to 72
  [0x000003ea]  Advance Line by -28 to 44
  [0x000003ec]  Special opcode 89: advance Address by 12 to 0x82dc and Line by 0 to 44
  [0x000003ed]  Special opcode 36: advance Address by 4 to 0x82e0 and Line by 3 to 47
  [0x000003ee]  Special opcode 32: advance Address by 4 to 0x82e4 and Line by -1 to 46
  [0x000003ef]  Special opcode 34: advance Address by 4 to 0x82e8 and Line by 1 to 47
  [0x000003f0]  Special opcode 65: advance Address by 8 to 0x82f0 and Line by 4 to 51
  [0x000003f1]  Special opcode 35: advance Address by 4 to 0x82f4 and Line by 2 to 53
  [0x000003f2]  Special opcode 34: advance Address by 4 to 0x82f8 and Line by 1 to 54
  [0x000003f3]  Special opcode 32: advance Address by 4 to 0x82fc and Line by -1 to 53
  [0x000003f4]  Extended opcode 4: set Discriminator to 1
  [0x000003f8]  Advance Line by -13 to 40
  [0x000003fa]  Special opcode 33: advance Address by 4 to 0x8300 and Line by 0 to 40
  [0x000003fb]  Extended opcode 4: set Discriminator to 1
  [0x000003ff]  Special opcode 37: advance Address by 4 to 0x8304 and Line by 4 to 44
  [0x00000400]  Extended opcode 4: set Discriminator to 1
  [0x00000404]  Special opcode 29: advance Address by 4 to 0x8308 and Line by -4 to 40
  [0x00000405]  Advance Line by 20 to 60
  [0x00000407]  Special opcode 33: advance Address by 4 to 0x830c and Line by 0 to 60
  [0x00000408]  Extended opcode 4: set Discriminator to 2
  [0x0000040c]  Advance Line by -22 to 38
  [0x0000040e]  Special opcode 89: advance Address by 12 to 0x8318 and Line by 0 to 38
  [0x0000040f]  Extended opcode 4: set Discriminator to 2
  [0x00000413]  Special opcode 60: advance Address by 8 to 0x8320 and Line by -1 to 37
  [0x00000414]  Extended opcode 4: set Discriminator to 2
  [0x00000418]  Special opcode 34: advance Address by 4 to 0x8324 and Line by 1 to 38
  [0x00000419]  Extended opcode 4: set Discriminator to 2
  [0x0000041d]  Special opcode 86: advance Address by 12 to 0x8330 and Line by -3 to 35
  [0x0000041e]  Extended opcode 4: set Discriminator to 2
  [0x00000422]  Special opcode 34: advance Address by 4 to 0x8334 and Line by 1 to 36
  [0x00000423]  Advance Line by 26 to 62
  [0x00000425]  Special opcode 117: advance Address by 16 to 0x8344 and Line by 0 to 62
  [0x00000426]  Special opcode 10: advance Address by 0 to 0x8344 and Line by 5 to 67
  [0x00000427]  Extended opcode 4: set Discriminator to 1
  [0x0000042b]  Set is_stmt to 0
  [0x0000042c]  Special opcode 117: advance Address by 16 to 0x8354 and Line by 0 to 67
  [0x0000042d]  Extended opcode 4: set Discriminator to 1
  [0x00000431]  Set is_stmt to 1
  [0x00000432]  Special opcode 64: advance Address by 8 to 0x835c and Line by 3 to 70
  [0x00000433]  Extended opcode 4: set Discriminator to 1
  [0x00000437]  Special opcode 34: advance Address by 4 to 0x8360 and Line by 1 to 71
  [0x00000438]  Extended opcode 4: set Discriminator to 1
  [0x0000043c]  Special opcode 32: advance Address by 4 to 0x8364 and Line by -1 to 70
  [0x0000043d]  Extended opcode 4: set Discriminator to 1
  [0x00000441]  Special opcode 35: advance Address by 4 to 0x8368 and Line by 2 to 72
  [0x00000442]  Special opcode 123: advance Address by 16 to 0x8378 and Line by 6 to 78
  [0x00000443]  Special opcode 40: advance Address by 4 to 0x837c and Line by 7 to 85
  [0x00000444]  Advance Line by -7 to 78
  [0x00000446]  Special opcode 33: advance Address by 4 to 0x8380 and Line by 0 to 78
  [0x00000447]  Special opcode 40: advance Address by 4 to 0x8384 and Line by 7 to 85
  [0x00000448]  Special opcode 92: advance Address by 12 to 0x8390 and Line by 3 to 88
  [0x00000449]  Advance Line by -21 to 67
  [0x0000044b]  Special opcode 33: advance Address by 4 to 0x8394 and Line by 0 to 67
  [0x0000044c]  Special opcode 38: advance Address by 4 to 0x8398 and Line by 5 to 72
  [0x0000044d]  Advance Line by 16 to 88
  [0x0000044f]  Special opcode 33: advance Address by 4 to 0x839c and Line by 0 to 88
  [0x00000450]  Special opcode 93: advance Address by 12 to 0x83a8 and Line by 4 to 92
  [0x00000451]  Special opcode 93: advance Address by 12 to 0x83b4 and Line by 4 to 96
  [0x00000452]  Advance Line by -29 to 67
  [0x00000454]  Special opcode 117: advance Address by 16 to 0x83c4 and Line by 0 to 67
  [0x00000455]  Special opcode 120: advance Address by 16 to 0x83d4 and Line by 3 to 70
  [0x00000456]  Special opcode 30: advance Address by 4 to 0x83d8 and Line by -3 to 67
  [0x00000457]  Special opcode 36: advance Address by 4 to 0x83dc and Line by 3 to 70
  [0x00000458]  Special opcode 34: advance Address by 4 to 0x83e0 and Line by 1 to 71
  [0x00000459]  Special opcode 34: advance Address by 4 to 0x83e4 and Line by 1 to 72
  [0x0000045a]  Advance Line by 22 to 94
  [0x0000045c]  Special opcode 61: advance Address by 8 to 0x83ec and Line by 0 to 94
  [0x0000045d]  Special opcode 113: advance Address by 16 to 0x83fc and Line by -4 to 90
  [0x0000045e]  Advance Line by 14 to 104
  [0x00000460]  Special opcode 89: advance Address by 12 to 0x8408 and Line by 0 to 104
  [0x00000461]  Advance Line by -18 to 86
  [0x00000463]  Special opcode 117: advance Address by 16 to 0x8418 and Line by 0 to 86
  [0x00000464]  Advance Line by 20 to 106
  [0x00000466]  Special opcode 145: advance Address by 20 to 0x842c and Line by 0 to 106
  [0x00000467]  Special opcode 10: advance Address by 0 to 0x842c and Line by 5 to 111
  [0x00000468]  Special opcode 28: advance Address by 4 to 0x8430 and Line by -5 to 106
  [0x00000469]  Special opcode 33: advance Address by 4 to 0x8434 and Line by 0 to 106
  [0x0000046a]  Special opcode 95: advance Address by 12 to 0x8440 and Line by 6 to 112
  [0x0000046b]  Special opcode 32: advance Address by 4 to 0x8444 and Line by -1 to 111
  [0x0000046c]  Extended opcode 4: set Discriminator to 1
  [0x00000470]  Special opcode 36: advance Address by 4 to 0x8448 and Line by 3 to 114
  [0x00000471]  Set is_stmt to 0
  [0x00000472]  Special opcode 61: advance Address by 8 to 0x8450 and Line by 0 to 114
  [0x00000473]  Extended opcode 4: set Discriminator to 2
  [0x00000477]  Special opcode 173: advance Address by 24 to 0x8468 and Line by 0 to 114
  [0x00000478]  Set is_stmt to 1
  [0x00000479]  Special opcode 91: advance Address by 12 to 0x8474 and Line by 2 to 116
  [0x0000047a]  Advance Line by 11 to 127
  [0x0000047c]  Special opcode 89: advance Address by 12 to 0x8480 and Line by 0 to 127
  [0x0000047d]  Advance Line by -8 to 119
  [0x0000047f]  Special opcode 61: advance Address by 8 to 0x8488 and Line by 0 to 119
  [0x00000480]  Special opcode 34: advance Address by 4 to 0x848c and Line by 1 to 120
  [0x00000481]  Special opcode 29: advance Address by 4 to 0x8490 and Line by -4 to 116
  [0x00000482]  Advance Line by 11 to 127
  [0x00000484]  Special opcode 33: advance Address by 4 to 0x8494 and Line by 0 to 127
  [0x00000485]  Special opcode 34: advance Address by 4 to 0x8498 and Line by 1 to 128
  [0x00000486]  Advance Line by -14 to 114
  [0x00000488]  Special opcode 33: advance Address by 4 to 0x849c and Line by 0 to 114
  [0x00000489]  Advance Line by 20 to 134
  [0x0000048b]  Special opcode 173: advance Address by 24 to 0x84b4 and Line by 0 to 134
  [0x0000048c]  Advance Line by -20 to 114
  [0x0000048e]  Special opcode 61: advance Address by 8 to 0x84bc and Line by 0 to 114
  [0x0000048f]  Advance Line by 19 to 133
  [0x00000491]  Special opcode 33: advance Address by 4 to 0x84c0 and Line by 0 to 133
  [0x00000492]  Advance PC by 4 to 0x84c4
  [0x00000494]  Extended opcode 1: End of Sequence


  Offset:                      0x497
  Length:                      307
  DWARF Version:               2
  Prologue Length:             118
  Minimum Instruction Length:  2
  Initial value of 'is_stmt':  1
  Line Base:                   -5
  Line Range:                  14
  Opcode Base:                 13

 Opcodes:
  Opcode 1 has 0 args
  Opcode 2 has 1 args
  Opcode 3 has 1 args
  Opcode 4 has 1 args
  Opcode 5 has 1 args
  Opcode 6 has 0 args
  Opcode 7 has 0 args
  Opcode 8 has 0 args
  Opcode 9 has 1 args
  Opcode 10 has 0 args
  Opcode 11 has 0 args
  Opcode 12 has 1 args

 The Directory Table (offset 0x4b2):
  1	source
  2	/usr/include/newlib/machine
  3	/usr/include/newlib

 The File Name Table (offset 0x4ea):
  Entry	Dir	Time	Size	Name
  1	1	0	0	string.c
  2	2	0	0	_default_types.h
  3	3	0	0	stdint.h

 Line Number Statements:
  [0x00000517]  Extended opcode 2: set Address to 0x84c4
  [0x0000051e]  Special opcode 9: advance Address by 0 to 0x84c4 and Line by 4 to 5
  [0x0000051f]  Special opcode 11: advance Address by 0 to 0x84c4 and Line by 6 to 11
  [0x00000520]  Advance Line by -6 to 5
  [0x00000522]  Special opcode 33: advance Address by 4 to 0x84c8 and Line by 0 to 5
  [0x00000523]  Special opcode 33: advance Address by 4 to 0x84cc and Line by 0 to 5
  [0x00000524]  Special opcode 95: advance Address by 12 to 0x84d8 and Line by 6 to 11
  [0x00000525]  Advance Line by 57 to 68
  [0x00000527]  Special opcode 33: advance Address by 4 to 0x84dc and Line by 0 to 68
  [0x00000528]  Advance Line by -54 to 14
  [0x0000052a]  Advance PC by constant 34 to 0x84fe
  [0x0000052b]  Special opcode 19: advance Address by 2 to 0x8500 and Line by 0 to 14
  [0x0000052c]  Special opcode 64: advance Address by 8 to 0x8508 and Line by 3 to 17
  [0x0000052d]  Advance Line by 9 to 26
  [0x0000052f]  Special opcode 61: advance Address by 8 to 0x8510 and Line by 0 to 26
  [0x00000530]  Advance Line by 17 to 43
  [0x00000532]  Special opcode 89: advance Address by 12 to 0x851c and Line by 0 to 43
  [0x00000533]  Special opcode 90: advance Address by 12 to 0x8528 and Line by 1 to 44
  [0x00000534]  Special opcode 63: advance Address by 8 to 0x8530 and Line by 2 to 46
  [0x00000535]  Special opcode 88: advance Address by 12 to 0x853c and Line by -1 to 45
  [0x00000536]  Special opcode 29: advance Address by 4 to 0x8540 and Line by -4 to 41
  [0x00000537]  Special opcode 37: advance Address by 4 to 0x8544 and Line by 4 to 45
  [0x00000538]  Special opcode 29: advance Address by 4 to 0x8548 and Line by -4 to 41
  [0x00000539]  Advance Line by 12 to 53
  [0x0000053b]  Special opcode 33: advance Address by 4 to 0x854c and Line by 0 to 53
  [0x0000053c]  Special opcode 29: advance Address by 4 to 0x8550 and Line by -4 to 49
  [0x0000053d]  Special opcode 37: advance Address by 4 to 0x8554 and Line by 4 to 53
  [0x0000053e]  Special opcode 29: advance Address by 4 to 0x8558 and Line by -4 to 49
  [0x0000053f]  Special opcode 37: advance Address by 4 to 0x855c and Line by 4 to 53
  [0x00000540]  Extended opcode 4: set Discriminator to 2
  [0x00000544]  Special opcode 35: advance Address by 4 to 0x8560 and Line by 2 to 55
  [0x00000545]  Extended opcode 4: set Discriminator to 2
  [0x00000549]  Special opcode 34: advance Address by 4 to 0x8564 and Line by 1 to 56
  [0x0000054a]  Extended opcode 4: set Discriminator to 2
  [0x0000054e]  Special opcode 30: advance Address by 4 to 0x8568 and Line by -3 to 53
  [0x0000054f]  Extended opcode 4: set Discriminator to 2
  [0x00000553]  Special opcode 64: advance Address by 8 to 0x8570 and Line by 3 to 56
  [0x00000554]  Extended opcode 4: set Discriminator to 2
  [0x00000558]  Special opcode 34: advance Address by 4 to 0x8574 and Line by 1 to 57
  [0x00000559]  Extended opcode 4: set Discriminator to 2
  [0x0000055d]  Special opcode 29: advance Address by 4 to 0x8578 and Line by -4 to 53
  [0x0000055e]  Special opcode 124: advance Address by 16 to 0x8588 and Line by 7 to 60
  [0x0000055f]  Special opcode 35: advance Address by 4 to 0x858c and Line by 2 to 62
  [0x00000560]  Advance Line by -33 to 29
  [0x00000562]  Special opcode 61: advance Address by 8 to 0x8594 and Line by 0 to 29
  [0x00000563]  Special opcode 35: advance Address by 4 to 0x8598 and Line by 2 to 31
  [0x00000564]  Special opcode 34: advance Address by 4 to 0x859c and Line by 1 to 32
  [0x00000565]  Special opcode 35: advance Address by 4 to 0x85a0 and Line by 2 to 34
  [0x00000566]  Advance Line by -7 to 27
  [0x00000568]  Special opcode 61: advance Address by 8 to 0x85a8 and Line by 0 to 27
  [0x00000569]  Advance Line by 9 to 36
  [0x0000056b]  Special opcode 33: advance Address by 4 to 0x85ac and Line by 0 to 36
  [0x0000056c]  Advance Line by -9 to 27
  [0x0000056e]  Special opcode 61: advance Address by 8 to 0x85b4 and Line by 0 to 27
  [0x0000056f]  Advance Line by -8 to 19
  [0x00000571]  Special opcode 61: advance Address by 8 to 0x85bc and Line by 0 to 19
  [0x00000572]  Special opcode 35: advance Address by 4 to 0x85c0 and Line by 2 to 21
  [0x00000573]  Special opcode 32: advance Address by 4 to 0x85c4 and Line by -1 to 20
  [0x00000574]  Special opcode 32: advance Address by 4 to 0x85c8 and Line by -1 to 19
  [0x00000575]  Advance Line by 43 to 62
  [0x00000577]  Special opcode 33: advance Address by 4 to 0x85cc and Line by 0 to 62
  [0x00000578]  Advance Line by -47 to 15
  [0x0000057a]  Special opcode 61: advance Address by 8 to 0x85d4 and Line by 0 to 15
  [0x0000057b]  Special opcode 58: advance Address by 8 to 0x85dc and Line by -3 to 12
  [0x0000057c]  Advance Line by 53 to 65
  [0x0000057e]  Special opcode 61: advance Address by 8 to 0x85e4 and Line by 0 to 65
  [0x0000057f]  Copy
  [0x00000580]  Special opcode 36: advance Address by 4 to 0x85e8 and Line by 3 to 68
  [0x00000581]  Extended opcode 4: set Discriminator to 2
  [0x00000585]  Set is_stmt to 0
  [0x00000586]  Special opcode 117: advance Address by 16 to 0x85f8 and Line by 0 to 68
  [0x00000587]  Set is_stmt to 1
  [0x00000588]  Special opcode 149: advance Address by 20 to 0x860c and Line by 4 to 72
  [0x00000589]  Special opcode 36: advance Address by 4 to 0x8610 and Line by 3 to 75
  [0x0000058a]  Special opcode 12: advance Address by 0 to 0x8610 and Line by 7 to 82
  [0x0000058b]  Advance Line by -7 to 75
  [0x0000058d]  Special opcode 33: advance Address by 4 to 0x8614 and Line by 0 to 75
  [0x0000058e]  Special opcode 40: advance Address by 4 to 0x8618 and Line by 7 to 82
  [0x0000058f]  Special opcode 144: advance Address by 20 to 0x862c and Line by -1 to 81
  [0x00000590]  Special opcode 34: advance Address by 4 to 0x8630 and Line by 1 to 82
  [0x00000591]  Extended opcode 4: set Discriminator to 2
  [0x00000595]  Set is_stmt to 0
  [0x00000596]  Special opcode 61: advance Address by 8 to 0x8638 and Line by 0 to 82
  [0x00000597]  Set is_stmt to 1
  [0x00000598]  Special opcode 91: advance Address by 12 to 0x8644 and Line by 2 to 84
  [0x00000599]  Special opcode 31: advance Address by 4 to 0x8648 and Line by -2 to 82
  [0x0000059a]  Special opcode 36: advance Address by 4 to 0x864c and Line by 3 to 85
  [0x0000059b]  Special opcode 35: advance Address by 4 to 0x8650 and Line by 2 to 87
  [0x0000059c]  Special opcode 28: advance Address by 4 to 0x8654 and Line by -5 to 82
  [0x0000059d]  Special opcode 97: advance Address by 12 to 0x8660 and Line by 8 to 90
  [0x0000059e]  Special opcode 119: advance Address by 16 to 0x8670 and Line by 2 to 92
  [0x0000059f]  Advance Line by -10 to 82
  [0x000005a1]  Special opcode 61: advance Address by 8 to 0x8678 and Line by 0 to 82
  [0x000005a2]  Extended opcode 4: set Discriminator to 1
  [0x000005a6]  Advance Line by 10 to 92
  [0x000005a8]  Special opcode 61: advance Address by 8 to 0x8680 and Line by 0 to 92
  [0x000005a9]  Advance Line by -11 to 81
  [0x000005ab]  Special opcode 61: advance Address by 8 to 0x8688 and Line by 0 to 81
  [0x000005ac]  Special opcode 34: advance Address by 4 to 0x868c and Line by 1 to 82
  [0x000005ad]  Advance Line by 12 to 94
  [0x000005af]  Special opcode 61: advance Address by 8 to 0x8694 and Line by 0 to 94
  [0x000005b0]  Special opcode 8: advance Address by 0 to 0x8694 and Line by 3 to 97
  [0x000005b1]  Extended opcode 4: set Discriminator to 1
  [0x000005b5]  Set is_stmt to 0
  [0x000005b6]  Special opcode 33: advance Address by 4 to 0x8698 and Line by 0 to 97
  [0x000005b7]  Set is_stmt to 1
  [0x000005b8]  Special opcode 119: advance Address by 16 to 0x86a8 and Line by 2 to 99
  [0x000005b9]  Special opcode 35: advance Address by 4 to 0x86ac and Line by 2 to 101
  [0x000005ba]  Special opcode 9: advance Address by 0 to 0x86ac and Line by 4 to 105
  [0x000005bb]  Extended opcode 4: set Discriminator to 1
  [0x000005bf]  Set is_stmt to 0
  [0x000005c0]  Advance PC by constant 34 to 0x86ce
  [0x000005c1]  Special opcode 19: advance Address by 2 to 0x86d0 and Line by 0 to 105
  [0x000005c2]  Extended opcode 4: set Discriminator to 2
  [0x000005c6]  Special opcode 61: advance Address by 8 to 0x86d8 and Line by 0 to 105
  [0x000005c7]  Set is_stmt to 1
  [0x000005c8]  Special opcode 119: advance Address by 16 to 0x86e8 and Line by 2 to 107
  [0x000005c9]  Advance PC by 4 to 0x86ec
  [0x000005cb]  Extended opcode 1: End of Sequence


  Offset:                      0x5ce
  Length:                      552
  DWARF Version:               2
  Prologue Length:             185
  Minimum Instruction Length:  2
  Initial value of 'is_stmt':  1
  Line Base:                   -5
  Line Range:                  14
  Opcode Base:                 13

 Opcodes:
  Opcode 1 has 0 args
  Opcode 2 has 1 args
  Opcode 3 has 1 args
  Opcode 4 has 1 args
  Opcode 5 has 1 args
  Opcode 6 has 0 args
  Opcode 7 has 0 args
  Opcode 8 has 0 args
  Opcode 9 has 1 args
  Opcode 10 has 0 args
  Opcode 11 has 0 args
  Opcode 12 has 1 args

 The Directory Table (offset 0x5e9):
  1	source
  2	/usr/include/newlib/machine
  3	/usr/include/newlib

 The File Name Table (offset 0x621):
  Entry	Dir	Time	Size	Name
  1	1	0	0	screenbackground.c
  2	2	0	0	_default_types.h
  3	3	0	0	stdint.h
  4	1	0	0	rpi-atags.h
  5	1	0	0	gpuFrameBuffer.h
  6	1	0	0	screenbackground.h

 Line Number Statements:
  [0x00000691]  Extended opcode 2: set Address to 0x86ec
  [0x00000698]  Advance Line by 60 to 61
  [0x0000069a]  Copy
  [0x0000069b]  Special opcode 35: advance Address by 4 to 0x86f0 and Line by 2 to 63
  [0x0000069c]  Advance PC by constant 34 to 0x8712
  [0x0000069d]  Special opcode 50: advance Address by 6 to 0x8718 and Line by 3 to 66
  [0x0000069e]  Special opcode 146: advance Address by 20 to 0x872c and Line by 1 to 67
  [0x0000069f]  Advance Line by 26 to 93
  [0x000006a1]  Special opcode 117: advance Address by 16 to 0x873c and Line by 0 to 93
  [0x000006a2]  Special opcode 118: advance Address by 16 to 0x874c and Line by 1 to 94
  [0x000006a3]  Special opcode 90: advance Address by 12 to 0x8758 and Line by 1 to 95
  [0x000006a4]  Special opcode 32: advance Address by 4 to 0x875c and Line by -1 to 94
  [0x000006a5]  Advance Line by -31 to 63
  [0x000006a7]  Special opcode 33: advance Address by 4 to 0x8760 and Line by 0 to 63
  [0x000006a8]  Advance Line by 13 to 76
  [0x000006aa]  Special opcode 61: advance Address by 8 to 0x8768 and Line by 0 to 76
  [0x000006ab]  Special opcode 62: advance Address by 8 to 0x8770 and Line by 1 to 77
  [0x000006ac]  Advance Line by -7 to 70
  [0x000006ae]  Special opcode 33: advance Address by 4 to 0x8774 and Line by 0 to 70
  [0x000006af]  Special opcode 62: advance Address by 8 to 0x877c and Line by 1 to 71
  [0x000006b0]  Advance Line by 26 to 97
  [0x000006b2]  Special opcode 89: advance Address by 12 to 0x8788 and Line by 0 to 97
  [0x000006b3]  Special opcode 33: advance Address by 4 to 0x878c and Line by 0 to 97
  [0x000006b4]  Special opcode 36: advance Address by 4 to 0x8790 and Line by 3 to 100
  [0x000006b5]  Special opcode 37: advance Address by 4 to 0x8794 and Line by 4 to 104
  [0x000006b6]  Special opcode 29: advance Address by 4 to 0x8798 and Line by -4 to 100
  [0x000006b7]  Extended opcode 4: set Discriminator to 1
  [0x000006bb]  Special opcode 38: advance Address by 4 to 0x879c and Line by 5 to 105
  [0x000006bc]  Set is_stmt to 0
  [0x000006bd]  Special opcode 89: advance Address by 12 to 0x87a8 and Line by 0 to 105
  [0x000006be]  Extended opcode 4: set Discriminator to 2
  [0x000006c2]  Set is_stmt to 1
  [0x000006c3]  Special opcode 34: advance Address by 4 to 0x87ac and Line by 1 to 106
  [0x000006c4]  Extended opcode 4: set Discriminator to 2
  [0x000006c8]  Special opcode 116: advance Address by 16 to 0x87bc and Line by -1 to 105
  [0x000006c9]  Special opcode 144: advance Address by 20 to 0x87d0 and Line by -1 to 104
  [0x000006ca]  Extended opcode 4: set Discriminator to 1
  [0x000006ce]  Special opcode 124: advance Address by 16 to 0x87e0 and Line by 7 to 111
  [0x000006cf]  Set is_stmt to 0
  [0x000006d0]  Special opcode 117: advance Address by 16 to 0x87f0 and Line by 0 to 111
  [0x000006d1]  Extended opcode 4: set Discriminator to 2
  [0x000006d5]  Set is_stmt to 1
  [0x000006d6]  Special opcode 34: advance Address by 4 to 0x87f4 and Line by 1 to 112
  [0x000006d7]  Extended opcode 4: set Discriminator to 2
  [0x000006db]  Special opcode 116: advance Address by 16 to 0x8804 and Line by -1 to 111
  [0x000006dc]  Special opcode 144: advance Address by 20 to 0x8818 and Line by -1 to 110
  [0x000006dd]  Special opcode 95: advance Address by 12 to 0x8824 and Line by 6 to 116
  [0x000006de]  Extended opcode 4: set Discriminator to 1
  [0x000006e2]  Special opcode 174: advance Address by 24 to 0x883c and Line by 1 to 117
  [0x000006e3]  Set is_stmt to 0
  [0x000006e4]  Special opcode 89: advance Address by 12 to 0x8848 and Line by 0 to 117
  [0x000006e5]  Extended opcode 4: set Discriminator to 2
  [0x000006e9]  Set is_stmt to 1
  [0x000006ea]  Special opcode 34: advance Address by 4 to 0x884c and Line by 1 to 118
  [0x000006eb]  Extended opcode 4: set Discriminator to 2
  [0x000006ef]  Special opcode 116: advance Address by 16 to 0x885c and Line by -1 to 117
  [0x000006f0]  Special opcode 144: advance Address by 20 to 0x8870 and Line by -1 to 116
  [0x000006f1]  Special opcode 151: advance Address by 20 to 0x8884 and Line by 6 to 122
  [0x000006f2]  Extended opcode 4: set Discriminator to 1
  [0x000006f6]  Special opcode 174: advance Address by 24 to 0x889c and Line by 1 to 123
  [0x000006f7]  Set is_stmt to 0
  [0x000006f8]  Special opcode 117: advance Address by 16 to 0x88ac and Line by 0 to 123
  [0x000006f9]  Extended opcode 4: set Discriminator to 2
  [0x000006fd]  Set is_stmt to 1
  [0x000006fe]  Special opcode 34: advance Address by 4 to 0x88b0 and Line by 1 to 124
  [0x000006ff]  Extended opcode 4: set Discriminator to 2
  [0x00000703]  Special opcode 116: advance Address by 16 to 0x88c0 and Line by -1 to 123
  [0x00000704]  Special opcode 144: advance Address by 20 to 0x88d4 and Line by -1 to 122
  [0x00000705]  Special opcode 151: advance Address by 20 to 0x88e8 and Line by 6 to 128
  [0x00000706]  Special opcode 140: advance Address by 20 to 0x88fc and Line by -5 to 123
  [0x00000707]  Extended opcode 4: set Discriminator to 2
  [0x0000070b]  Special opcode 40: advance Address by 4 to 0x8900 and Line by 7 to 130
  [0x0000070c]  Extended opcode 4: set Discriminator to 2
  [0x00000710]  Special opcode 60: advance Address by 8 to 0x8908 and Line by -1 to 129
  [0x00000711]  Extended opcode 4: set Discriminator to 2
  [0x00000715]  Special opcode 34: advance Address by 4 to 0x890c and Line by 1 to 130
  [0x00000716]  Extended opcode 4: set Discriminator to 2
  [0x0000071a]  Special opcode 60: advance Address by 8 to 0x8914 and Line by -1 to 129
  [0x0000071b]  Special opcode 60: advance Address by 8 to 0x891c and Line by -1 to 128
  [0x0000071c]  Special opcode 151: advance Address by 20 to 0x8930 and Line by 6 to 134
  [0x0000071d]  Special opcode 147: advance Address by 20 to 0x8944 and Line by 2 to 136
  [0x0000071e]  Special opcode 227: advance Address by 32 to 0x8964 and Line by -2 to 134
  [0x0000071f]  Special opcode 151: advance Address by 20 to 0x8978 and Line by 6 to 140
  [0x00000720]  Special opcode 118: advance Address by 16 to 0x8988 and Line by 1 to 141
  [0x00000721]  Extended opcode 4: set Discriminator to 2
  [0x00000725]  Special opcode 174: advance Address by 24 to 0x89a0 and Line by 1 to 142
  [0x00000726]  Extended opcode 4: set Discriminator to 2
  [0x0000072a]  Special opcode 116: advance Address by 16 to 0x89b0 and Line by -1 to 141
  [0x0000072b]  Special opcode 144: advance Address by 20 to 0x89c4 and Line by -1 to 140
  [0x0000072c]  Special opcode 151: advance Address by 20 to 0x89d8 and Line by 6 to 146
  [0x0000072d]  Special opcode 118: advance Address by 16 to 0x89e8 and Line by 1 to 147
  [0x0000072e]  Extended opcode 4: set Discriminator to 2
  [0x00000732]  Special opcode 174: advance Address by 24 to 0x8a00 and Line by 1 to 148
  [0x00000733]  Extended opcode 4: set Discriminator to 2
  [0x00000737]  Special opcode 116: advance Address by 16 to 0x8a10 and Line by -1 to 147
  [0x00000738]  Special opcode 144: advance Address by 20 to 0x8a24 and Line by -1 to 146
  [0x00000739]  Special opcode 178: advance Address by 24 to 0x8a3c and Line by 5 to 151
  [0x0000073a]  Special opcode 35: advance Address by 4 to 0x8a40 and Line by 2 to 153
  [0x0000073b]  Special opcode 36: advance Address by 4 to 0x8a44 and Line by 3 to 156
  [0x0000073c]  Special opcode 30: advance Address by 4 to 0x8a48 and Line by -3 to 153
  [0x0000073d]  Special opcode 34: advance Address by 4 to 0x8a4c and Line by 1 to 154
  [0x0000073e]  Special opcode 32: advance Address by 4 to 0x8a50 and Line by -1 to 153
  [0x0000073f]  Special opcode 34: advance Address by 4 to 0x8a54 and Line by 1 to 154
  [0x00000740]  Special opcode 35: advance Address by 4 to 0x8a58 and Line by 2 to 156
  [0x00000741]  Special opcode 146: advance Address by 20 to 0x8a6c and Line by 1 to 157
  [0x00000742]  Special opcode 34: advance Address by 4 to 0x8a70 and Line by 1 to 158
  [0x00000743]  Special opcode 32: advance Address by 4 to 0x8a74 and Line by -1 to 157
  [0x00000744]  Special opcode 62: advance Address by 8 to 0x8a7c and Line by 1 to 158
  [0x00000745]  Special opcode 118: advance Address by 16 to 0x8a8c and Line by 1 to 159
  [0x00000746]  Special opcode 146: advance Address by 20 to 0x8aa0 and Line by 1 to 160
  [0x00000747]  Special opcode 146: advance Address by 20 to 0x8ab4 and Line by 1 to 161
  [0x00000748]  Special opcode 146: advance Address by 20 to 0x8ac8 and Line by 1 to 162
  [0x00000749]  Special opcode 34: advance Address by 4 to 0x8acc and Line by 1 to 163
  [0x0000074a]  Special opcode 32: advance Address by 4 to 0x8ad0 and Line by -1 to 162
  [0x0000074b]  Special opcode 62: advance Address by 8 to 0x8ad8 and Line by 1 to 163
  [0x0000074c]  Special opcode 118: advance Address by 16 to 0x8ae8 and Line by 1 to 164
  [0x0000074d]  Special opcode 146: advance Address by 20 to 0x8afc and Line by 1 to 165
  [0x0000074e]  Special opcode 146: advance Address by 20 to 0x8b10 and Line by 1 to 166
  [0x0000074f]  Special opcode 148: advance Address by 20 to 0x8b24 and Line by 3 to 169
  [0x00000750]  Special opcode 34: advance Address by 4 to 0x8b28 and Line by 1 to 170
  [0x00000751]  Special opcode 32: advance Address by 4 to 0x8b2c and Line by -1 to 169
  [0x00000752]  Special opcode 62: advance Address by 8 to 0x8b34 and Line by 1 to 170
  [0x00000753]  Special opcode 118: advance Address by 16 to 0x8b44 and Line by 1 to 171
  [0x00000754]  Special opcode 34: advance Address by 4 to 0x8b48 and Line by 1 to 172
  [0x00000755]  Special opcode 32: advance Address by 4 to 0x8b4c and Line by -1 to 171
  [0x00000756]  Special opcode 62: advance Address by 8 to 0x8b54 and Line by 1 to 172
  [0x00000757]  Special opcode 118: advance Address by 16 to 0x8b64 and Line by 1 to 173
  [0x00000758]  Special opcode 34: advance Address by 4 to 0x8b68 and Line by 1 to 174
  [0x00000759]  Special opcode 32: advance Address by 4 to 0x8b6c and Line by -1 to 173
  [0x0000075a]  Special opcode 62: advance Address by 8 to 0x8b74 and Line by 1 to 174
  [0x0000075b]  Special opcode 118: advance Address by 16 to 0x8b84 and Line by 1 to 175
  [0x0000075c]  Special opcode 120: advance Address by 16 to 0x8b94 and Line by 3 to 178
  [0x0000075d]  Special opcode 30: advance Address by 4 to 0x8b98 and Line by -3 to 175
  [0x0000075e]  Special opcode 94: advance Address by 12 to 0x8ba4 and Line by 5 to 180
  [0x0000075f]  Advance Line by 10 to 190
  [0x00000761]  Special opcode 33: advance Address by 4 to 0x8ba8 and Line by 0 to 190
  [0x00000762]  Special opcode 115: advance Address by 16 to 0x8bb8 and Line by -2 to 188
  [0x00000763]  Special opcode 35: advance Address by 4 to 0x8bbc and Line by 2 to 190
  [0x00000764]  Advance Line by 29 to 219
  [0x00000766]  Special opcode 117: advance Address by 16 to 0x8bcc and Line by 0 to 219
  [0x00000767]  Advance Line by -6 to 213
  [0x00000769]  Special opcode 33: advance Address by 4 to 0x8bd0 and Line by 0 to 213
  [0x0000076a]  Special opcode 39: advance Address by 4 to 0x8bd4 and Line by 6 to 219
  [0x0000076b]  Advance Line by -31 to 188
  [0x0000076d]  Special opcode 33: advance Address by 4 to 0x8bd8 and Line by 0 to 188
  [0x0000076e]  Special opcode 35: advance Address by 4 to 0x8bdc and Line by 2 to 190
  [0x0000076f]  Advance Line by 29 to 219
  [0x00000771]  Advance PC by constant 34 to 0x8bfe
  [0x00000772]  Special opcode 47: advance Address by 6 to 0x8c04 and Line by 0 to 219
  [0x00000773]  Special opcode 34: advance Address by 4 to 0x8c08 and Line by 1 to 220
  [0x00000774]  Special opcode 32: advance Address by 4 to 0x8c0c and Line by -1 to 219
  [0x00000775]  Special opcode 34: advance Address by 4 to 0x8c10 and Line by 1 to 220
  [0x00000776]  Special opcode 37: advance Address by 4 to 0x8c14 and Line by 4 to 224
  [0x00000777]  Special opcode 119: advance Address by 16 to 0x8c24 and Line by 2 to 226
  [0x00000778]  Special opcode 31: advance Address by 4 to 0x8c28 and Line by -2 to 224
  [0x00000779]  Special opcode 35: advance Address by 4 to 0x8c2c and Line by 2 to 226
  [0x0000077a]  Special opcode 91: advance Address by 12 to 0x8c38 and Line by 2 to 228
  [0x0000077b]  Special opcode 91: advance Address by 12 to 0x8c44 and Line by 2 to 230
  [0x0000077c]  Special opcode 35: advance Address by 4 to 0x8c48 and Line by 2 to 232
  [0x0000077d]  Special opcode 37: advance Address by 4 to 0x8c4c and Line by 4 to 236
  [0x0000077e]  Special opcode 29: advance Address by 4 to 0x8c50 and Line by -4 to 232
  [0x0000077f]  Special opcode 37: advance Address by 4 to 0x8c54 and Line by 4 to 236
  [0x00000780]  Special opcode 29: advance Address by 4 to 0x8c58 and Line by -4 to 232
  [0x00000781]  Special opcode 37: advance Address by 4 to 0x8c5c and Line by 4 to 236
  [0x00000782]  Special opcode 64: advance Address by 8 to 0x8c64 and Line by 3 to 239
  [0x00000783]  Special opcode 91: advance Address by 12 to 0x8c70 and Line by 2 to 241
  [0x00000784]  Special opcode 35: advance Address by 4 to 0x8c74 and Line by 2 to 243
  [0x00000785]  Special opcode 38: advance Address by 4 to 0x8c78 and Line by 5 to 248
  [0x00000786]  Special opcode 28: advance Address by 4 to 0x8c7c and Line by -5 to 243
  [0x00000787]  Special opcode 38: advance Address by 4 to 0x8c80 and Line by 5 to 248
  [0x00000788]  Special opcode 28: advance Address by 4 to 0x8c84 and Line by -5 to 243
  [0x00000789]  Special opcode 38: advance Address by 4 to 0x8c88 and Line by 5 to 248
  [0x0000078a]  Special opcode 65: advance Address by 8 to 0x8c90 and Line by 4 to 252
  [0x0000078b]  Special opcode 91: advance Address by 12 to 0x8c9c and Line by 2 to 254
  [0x0000078c]  Special opcode 35: advance Address by 4 to 0x8ca0 and Line by 2 to 256
  [0x0000078d]  Special opcode 37: advance Address by 4 to 0x8ca4 and Line by 4 to 260
  [0x0000078e]  Special opcode 29: advance Address by 4 to 0x8ca8 and Line by -4 to 256
  [0x0000078f]  Special opcode 65: advance Address by 8 to 0x8cb0 and Line by 4 to 260
  [0x00000790]  Special opcode 92: advance Address by 12 to 0x8cbc and Line by 3 to 263
  [0x00000791]  Special opcode 91: advance Address by 12 to 0x8cc8 and Line by 2 to 265
  [0x00000792]  Special opcode 63: advance Address by 8 to 0x8cd0 and Line by 2 to 267
  [0x00000793]  Advance Line by 10 to 277
  [0x00000795]  Special opcode 89: advance Address by 12 to 0x8cdc and Line by 0 to 277
  [0x00000796]  Advance Line by -10 to 267
  [0x00000798]  Special opcode 33: advance Address by 4 to 0x8ce0 and Line by 0 to 267
  [0x00000799]  Advance Line by -77 to 190
  [0x0000079c]  Special opcode 33: advance Address by 4 to 0x8ce4 and Line by 0 to 190
  [0x0000079d]  Advance Line by 29 to 219
  [0x0000079f]  Special opcode 61: advance Address by 8 to 0x8cec and Line by 0 to 219
  [0x000007a0]  Special opcode 34: advance Address by 4 to 0x8cf0 and Line by 1 to 220
  [0x000007a1]  Special opcode 32: advance Address by 4 to 0x8cf4 and Line by -1 to 219
  [0x000007a2]  Special opcode 34: advance Address by 4 to 0x8cf8 and Line by 1 to 220
  [0x000007a3]  Advance Line by 56 to 276
  [0x000007a5]  Special opcode 61: advance Address by 8 to 0x8d00 and Line by 0 to 276
  [0x000007a6]  Special opcode 62: advance Address by 8 to 0x8d08 and Line by 1 to 277
  [0x000007a7]  Special opcode 32: advance Address by 4 to 0x8d0c and Line by -1 to 276
  [0x000007a8]  Special opcode 28: advance Address by 4 to 0x8d10 and Line by -5 to 271
  [0x000007a9]  Special opcode 95: advance Address by 12 to 0x8d1c and Line by 6 to 277
  [0x000007aa]  Advance Line by -6 to 271
  [0x000007ac]  Special opcode 33: advance Address by 4 to 0x8d20 and Line by 0 to 271
  [0x000007ad]  Advance PC by 72 to 0x8d68
  [0x000007af]  Special opcode 13: advance Address by 0 to 0x8d68 and Line by 8 to 279
  [0x000007b0]  Advance Line by 9 to 288
  [0x000007b2]  Special opcode 33: advance Address by 4 to 0x8d6c and Line by 0 to 288
  [0x000007b3]  Special opcode 34: advance Address by 4 to 0x8d70 and Line by 1 to 289
  [0x000007b4]  Special opcode 90: advance Address by 12 to 0x8d7c and Line by 1 to 290
  [0x000007b5]  Special opcode 32: advance Address by 4 to 0x8d80 and Line by -1 to 289
  [0x000007b6]  Special opcode 34: advance Address by 4 to 0x8d84 and Line by 1 to 290
  [0x000007b7]  Special opcode 60: advance Address by 8 to 0x8d8c and Line by -1 to 289
  [0x000007b8]  Special opcode 64: advance Address by 8 to 0x8d94 and Line by 3 to 292
  [0x000007b9]  Special opcode 230: advance Address by 32 to 0x8db4 and Line by 1 to 293
  [0x000007ba]  Special opcode 174: advance Address by 24 to 0x8dcc and Line by 1 to 294
  [0x000007bb]  Special opcode 174: advance Address by 24 to 0x8de4 and Line by 1 to 295
  [0x000007bc]  Special opcode 176: advance Address by 24 to 0x8dfc and Line by 3 to 298
  [0x000007bd]  Special opcode 32: advance Address by 4 to 0x8e00 and Line by -1 to 297
  [0x000007be]  Special opcode 62: advance Address by 8 to 0x8e08 and Line by 1 to 298
  [0x000007bf]  Special opcode 32: advance Address by 4 to 0x8e0c and Line by -1 to 297
  [0x000007c0]  Special opcode 118: advance Address by 16 to 0x8e1c and Line by 1 to 298
  [0x000007c1]  Special opcode 146: advance Address by 20 to 0x8e30 and Line by 1 to 299
  [0x000007c2]  Special opcode 32: advance Address by 4 to 0x8e34 and Line by -1 to 298
  [0x000007c3]  Special opcode 34: advance Address by 4 to 0x8e38 and Line by 1 to 299
  [0x000007c4]  Special opcode 34: advance Address by 4 to 0x8e3c and Line by 1 to 300
  [0x000007c5]  Special opcode 60: advance Address by 8 to 0x8e44 and Line by -1 to 299
  [0x000007c6]  Special opcode 118: advance Address by 16 to 0x8e54 and Line by 1 to 300
  [0x000007c7]  Special opcode 146: advance Address by 20 to 0x8e68 and Line by 1 to 301
  [0x000007c8]  Special opcode 32: advance Address by 4 to 0x8e6c and Line by -1 to 300
  [0x000007c9]  Special opcode 35: advance Address by 4 to 0x8e70 and Line by 2 to 302
  [0x000007ca]  Special opcode 60: advance Address by 8 to 0x8e78 and Line by -1 to 301
  [0x000007cb]  Special opcode 118: advance Address by 16 to 0x8e88 and Line by 1 to 302
  [0x000007cc]  Special opcode 146: advance Address by 20 to 0x8e9c and Line by 1 to 303
  [0x000007cd]  Special opcode 32: advance Address by 4 to 0x8ea0 and Line by -1 to 302
  [0x000007ce]  Special opcode 35: advance Address by 4 to 0x8ea4 and Line by 2 to 304
  [0x000007cf]  Special opcode 60: advance Address by 8 to 0x8eac and Line by -1 to 303
  [0x000007d0]  Special opcode 118: advance Address by 16 to 0x8ebc and Line by 1 to 304
  [0x000007d1]  Special opcode 174: advance Address by 24 to 0x8ed4 and Line by 1 to 305
  [0x000007d2]  Special opcode 147: advance Address by 20 to 0x8ee8 and Line by 2 to 307
  [0x000007d3]  Special opcode 32: advance Address by 4 to 0x8eec and Line by -1 to 306
  [0x000007d4]  Special opcode 62: advance Address by 8 to 0x8ef4 and Line by 1 to 307
  [0x000007d5]  Special opcode 32: advance Address by 4 to 0x8ef8 and Line by -1 to 306
  [0x000007d6]  Special opcode 118: advance Address by 16 to 0x8f08 and Line by 1 to 307
  [0x000007d7]  Special opcode 174: advance Address by 24 to 0x8f20 and Line by 1 to 308
  [0x000007d8]  Special opcode 147: advance Address by 20 to 0x8f34 and Line by 2 to 310
  [0x000007d9]  Special opcode 174: advance Address by 24 to 0x8f4c and Line by 1 to 311
  [0x000007da]  Special opcode 148: advance Address by 20 to 0x8f60 and Line by 3 to 314
  [0x000007db]  Special opcode 30: advance Address by 4 to 0x8f64 and Line by -3 to 311
  [0x000007dc]  Advance Line by -304 to 7
  [0x000007df]  Advance PC by constant 34 to 0x8f86
  [0x000007e0]  Special opcode 215: advance Address by 30 to 0x8fa4 and Line by 0 to 7
  [0x000007e1]  Special opcode 37: advance Address by 4 to 0x8fa8 and Line by 4 to 11
  [0x000007e2]  Special opcode 62: advance Address by 8 to 0x8fb0 and Line by 1 to 12
  [0x000007e3]  Special opcode 34: advance Address by 4 to 0x8fb4 and Line by 1 to 13
  [0x000007e4]  Special opcode 31: advance Address by 4 to 0x8fb8 and Line by -2 to 11
  [0x000007e5]  Special opcode 34: advance Address by 4 to 0x8fbc and Line by 1 to 12
  [0x000007e6]  Special opcode 34: advance Address by 4 to 0x8fc0 and Line by 1 to 13
  [0x000007e7]  Special opcode 37: advance Address by 4 to 0x8fc4 and Line by 4 to 17
  [0x000007e8]  Advance Line by -10 to 7
  [0x000007ea]  Special opcode 33: advance Address by 4 to 0x8fc8 and Line by 0 to 7
  [0x000007eb]  Advance Line by 10 to 17
  [0x000007ed]  Special opcode 33: advance Address by 4 to 0x8fcc and Line by 0 to 17
  [0x000007ee]  Special opcode 63: advance Address by 8 to 0x8fd4 and Line by 2 to 19
  [0x000007ef]  Special opcode 63: advance Address by 8 to 0x8fdc and Line by 2 to 21
  [0x000007f0]  Special opcode 63: advance Address by 8 to 0x8fe4 and Line by 2 to 23
  [0x000007f1]  Special opcode 63: advance Address by 8 to 0x8fec and Line by 2 to 25
  [0x000007f2]  Advance Line by 32 to 57
  [0x000007f4]  Special opcode 33: advance Address by 4 to 0x8ff0 and Line by 0 to 57
  [0x000007f5]  Advance PC by 28 to 0x900c
  [0x000007f7]  Extended opcode 1: End of Sequence


Contents of the .debug_info section:

  Compilation Unit @ offset 0x0:
   Length:        0x5d (32-bit)
   Version:       2
   Abbrev Offset: 0x0
   Pointer Size:  4
 <0><b>: Abbrev Number: 1 (DW_TAG_compile_unit)
    <c>   DW_AT_stmt_list   : 0x0	
    <10>   DW_AT_low_pc      : 0x8000	
    <14>   DW_AT_high_pc     : 0x8020	
    <18>   DW_AT_name        : source/boot.S	
    <26>   DW_AT_comp_dir    : /home/robert/Desktop/rasp/chapuzas/template2	
    <53>   DW_AT_producer    : GNU AS 2.24	
    <5f>   DW_AT_language    : 32769	(MIPS assembler)
  Compilation Unit @ offset 0x61:
   Length:        0x67 (32-bit)
   Version:       2
   Abbrev Offset: 0x14
   Pointer Size:  4
 <0><6c>: Abbrev Number: 1 (DW_TAG_compile_unit)
    <6d>   DW_AT_stmt_list   : 0x42	
    <71>   DW_AT_low_pc      : 0x805c	
    <75>   DW_AT_high_pc     : 0x812c	
    <79>   DW_AT_name        : source/rpi-gpuMailbox.S	
    <91>   DW_AT_comp_dir    : /home/robert/Desktop/rasp/chapuzas/template2	
    <be>   DW_AT_producer    : GNU AS 2.24	
    <ca>   DW_AT_language    : 32769	(MIPS assembler)
  Compilation Unit @ offset 0xcc:
   Length:        0x62 (32-bit)
   Version:       2
   Abbrev Offset: 0x28
   Pointer Size:  4
 <0><d7>: Abbrev Number: 1 (DW_TAG_compile_unit)
    <d8>   DW_AT_stmt_list   : 0xc2	
    <dc>   DW_AT_low_pc      : 0x812c	
    <e0>   DW_AT_high_pc     : 0x8168	
    <e4>   DW_AT_name        : source/divisions.S	
    <f7>   DW_AT_comp_dir    : /home/robert/Desktop/rasp/chapuzas/template2	
    <124>   DW_AT_producer    : GNU AS 2.24	
    <130>   DW_AT_language    : 32769	(MIPS assembler)
  Compilation Unit @ offset 0x132:
   Length:        0x1b7 (32-bit)
   Version:       4
   Abbrev Offset: 0x3c
   Pointer Size:  4
 <0><13d>: Abbrev Number: 1 (DW_TAG_compile_unit)
    <13e>   DW_AT_producer    : (indirect string, offset: 0x7f): GNU C 4.8.2 -mfpu=vfp -mfloat-abi=hard -march=armv6zk -mtune=arm1176jzf-s -g -O2	
    <142>   DW_AT_language    : 1	(ANSI C)
    <143>   DW_AT_name        : (indirect string, offset: 0xe): source/program.c	
    <147>   DW_AT_comp_dir    : (indirect string, offset: 0x132): /home/robert/Desktop/rasp/chapuzas/template2	
    <14b>   DW_AT_ranges      : 0x0	
    <14f>   DW_AT_low_pc      : 0x0	
    <153>   DW_AT_stmt_list   : 0x112	
 <1><157>: Abbrev Number: 2 (DW_TAG_base_type)
    <158>   DW_AT_byte_size   : 1	
    <159>   DW_AT_encoding    : 6	(signed char)
    <15a>   DW_AT_name        : (indirect string, offset: 0x55): signed char	
 <1><15e>: Abbrev Number: 2 (DW_TAG_base_type)
    <15f>   DW_AT_byte_size   : 1	
    <160>   DW_AT_encoding    : 8	(unsigned char)
    <161>   DW_AT_name        : (indirect string, offset: 0x53): unsigned char	
 <1><165>: Abbrev Number: 2 (DW_TAG_base_type)
    <166>   DW_AT_byte_size   : 2	
    <167>   DW_AT_encoding    : 5	(signed)
    <168>   DW_AT_name        : (indirect string, offset: 0x121): short int	
 <1><16c>: Abbrev Number: 2 (DW_TAG_base_type)
    <16d>   DW_AT_byte_size   : 2	
    <16e>   DW_AT_encoding    : 7	(unsigned)
    <16f>   DW_AT_name        : (indirect string, offset: 0xdb): short unsigned int	
 <1><173>: Abbrev Number: 2 (DW_TAG_base_type)
    <174>   DW_AT_byte_size   : 4	
    <175>   DW_AT_encoding    : 5	(signed)
    <176>   DW_AT_name        : (indirect string, offset: 0x5): long int	
 <1><17a>: Abbrev Number: 3 (DW_TAG_typedef)
    <17b>   DW_AT_name        : (indirect string, offset: 0xd0): __uint32_t	
    <17f>   DW_AT_decl_file   : 2	
    <180>   DW_AT_decl_line   : 56	
    <181>   DW_AT_type        : <0x185>	
 <1><185>: Abbrev Number: 2 (DW_TAG_base_type)
    <186>   DW_AT_byte_size   : 4	
    <187>   DW_AT_encoding    : 7	(unsigned)
    <188>   DW_AT_name        : (indirect string, offset: 0x37): long unsigned int	
 <1><18c>: Abbrev Number: 2 (DW_TAG_base_type)
    <18d>   DW_AT_byte_size   : 8	
    <18e>   DW_AT_encoding    : 5	(signed)
    <18f>   DW_AT_name        : (indirect string, offset: 0x0): long long int	
 <1><193>: Abbrev Number: 2 (DW_TAG_base_type)
    <194>   DW_AT_byte_size   : 8	
    <195>   DW_AT_encoding    : 7	(unsigned)
    <196>   DW_AT_name        : (indirect string, offset: 0x32): long long unsigned int	
 <1><19a>: Abbrev Number: 4 (DW_TAG_base_type)
    <19b>   DW_AT_byte_size   : 4	
    <19c>   DW_AT_encoding    : 5	(signed)
    <19d>   DW_AT_name        : int	
 <1><1a1>: Abbrev Number: 2 (DW_TAG_base_type)
    <1a2>   DW_AT_byte_size   : 4	
    <1a3>   DW_AT_encoding    : 7	(unsigned)
    <1a4>   DW_AT_name        : (indirect string, offset: 0x3c): unsigned int	
 <1><1a8>: Abbrev Number: 3 (DW_TAG_typedef)
    <1a9>   DW_AT_name        : (indirect string, offset: 0xd2): uint32_t	
    <1ad>   DW_AT_decl_file   : 3	
    <1ae>   DW_AT_decl_line   : 66	
    <1af>   DW_AT_type        : <0x17a>	
 <1><1b3>: Abbrev Number: 2 (DW_TAG_base_type)
    <1b4>   DW_AT_byte_size   : 1	
    <1b5>   DW_AT_encoding    : 8	(unsigned char)
    <1b6>   DW_AT_name        : (indirect string, offset: 0x5c): char	
 <1><1ba>: Abbrev Number: 5 (DW_TAG_subprogram)
    <1bb>   DW_AT_external    : 1	
    <1bb>   DW_AT_name        : (indirect string, offset: 0x2d): main	
    <1bf>   DW_AT_decl_file   : 1	
    <1c0>   DW_AT_decl_line   : 7	
    <1c1>   DW_AT_prototyped  : 1	
    <1c1>   DW_AT_type        : <0x19a>	
    <1c5>   DW_AT_low_pc      : 0x8020	
    <1c9>   DW_AT_high_pc     : 0x3c	
    <1cd>   DW_AT_frame_base  : 1 byte block: 9c 	(DW_OP_call_frame_cfa)
    <1cf>   DW_AT_GNU_all_call_sites: 1	
    <1cf>   DW_AT_sibling     : <0x296>	
 <2><1d3>: Abbrev Number: 6 (DW_TAG_formal_parameter)
    <1d4>   DW_AT_name        : r0	
    <1d7>   DW_AT_decl_file   : 1	
    <1d8>   DW_AT_decl_line   : 7	
    <1d9>   DW_AT_type        : <0x1a8>	
    <1dd>   DW_AT_location    : 0x0	(location list)
 <2><1e1>: Abbrev Number: 6 (DW_TAG_formal_parameter)
    <1e2>   DW_AT_name        : r1	
    <1e5>   DW_AT_decl_file   : 1	
    <1e6>   DW_AT_decl_line   : 7	
    <1e7>   DW_AT_type        : <0x1a8>	
    <1eb>   DW_AT_location    : 0x21	(location list)
 <2><1ef>: Abbrev Number: 7 (DW_TAG_formal_parameter)
    <1f0>   DW_AT_name        : (indirect string, offset: 0x49): atagsAddr	
    <1f4>   DW_AT_decl_file   : 1	
    <1f5>   DW_AT_decl_line   : 7	
    <1f6>   DW_AT_type        : <0x1a8>	
    <1fa>   DW_AT_location    : 0x42	(location list)
 <2><1fe>: Abbrev Number: 8 (DW_TAG_subprogram)
    <1ff>   DW_AT_external    : 1	
    <1ff>   DW_AT_name        : (indirect string, offset: 0x12b): bgInit	
    <203>   DW_AT_decl_file   : 1	
    <204>   DW_AT_decl_line   : 10	
    <205>   DW_AT_type        : <0x19a>	
    <209>   DW_AT_declaration : 1	
    <209>   DW_AT_sibling     : <0x20f>	
 <3><20d>: Abbrev Number: 9 (DW_TAG_unspecified_parameters)
 <3><20e>: Abbrev Number: 0
 <2><20f>: Abbrev Number: 10 (DW_TAG_lexical_block)
    <210>   DW_AT_low_pc      : 0x8034	
    <214>   DW_AT_high_pc     : 0x28	
    <218>   DW_AT_sibling     : <0x27c>	
 <3><21c>: Abbrev Number: 8 (DW_TAG_subprogram)
    <21d>   DW_AT_external    : 1	
    <21d>   DW_AT_name        : (indirect string, offset: 0xee): bgRefresh	
    <221>   DW_AT_decl_file   : 1	
    <222>   DW_AT_decl_line   : 13	
    <223>   DW_AT_type        : <0x19a>	
    <227>   DW_AT_declaration : 1	
    <227>   DW_AT_sibling     : <0x22d>	
 <4><22b>: Abbrev Number: 9 (DW_TAG_unspecified_parameters)
 <4><22c>: Abbrev Number: 0
 <3><22d>: Abbrev Number: 11 (DW_TAG_GNU_call_site)
    <22e>   DW_AT_low_pc      : 0x8038	
    <232>   DW_AT_abstract_origin: <0x296>	
 <3><236>: Abbrev Number: 11 (DW_TAG_GNU_call_site)
    <237>   DW_AT_low_pc      : 0x803c	
    <23b>   DW_AT_abstract_origin: <0x2a3>	
 <3><23f>: Abbrev Number: 12 (DW_TAG_GNU_call_site)
    <240>   DW_AT_low_pc      : 0x8044	
    <244>   DW_AT_abstract_origin: <0x2b4>	
    <248>   DW_AT_sibling     : <0x256>	
 <4><24c>: Abbrev Number: 13 (DW_TAG_GNU_call_site_parameter)
    <24d>   DW_AT_location    : 1 byte block: 50 	(DW_OP_reg0 (r0))
    <24f>   DW_AT_GNU_call_site_value: 5 byte block: c 20 a1 7 0 	(DW_OP_const4u: 500000)
 <4><255>: Abbrev Number: 0
 <3><256>: Abbrev Number: 11 (DW_TAG_GNU_call_site)
    <257>   DW_AT_low_pc      : 0x8048	
    <25b>   DW_AT_abstract_origin: <0x2c5>	
 <3><25f>: Abbrev Number: 11 (DW_TAG_GNU_call_site)
    <260>   DW_AT_low_pc      : 0x804c	
    <264>   DW_AT_abstract_origin: <0x2a3>	
 <3><268>: Abbrev Number: 14 (DW_TAG_GNU_call_site)
    <269>   DW_AT_low_pc      : 0x8054	
    <26d>   DW_AT_abstract_origin: <0x2b4>	
 <4><271>: Abbrev Number: 13 (DW_TAG_GNU_call_site_parameter)
    <272>   DW_AT_location    : 1 byte block: 50 	(DW_OP_reg0 (r0))
    <274>   DW_AT_GNU_call_site_value: 5 byte block: c 20 a1 7 0 	(DW_OP_const4u: 500000)
 <4><27a>: Abbrev Number: 0
 <3><27b>: Abbrev Number: 0
 <2><27c>: Abbrev Number: 11 (DW_TAG_GNU_call_site)
    <27d>   DW_AT_low_pc      : 0x802c	
    <281>   DW_AT_abstract_origin: <0x2d2>	
 <2><285>: Abbrev Number: 14 (DW_TAG_GNU_call_site)
    <286>   DW_AT_low_pc      : 0x8034	
    <28a>   DW_AT_abstract_origin: <0x2df>	
 <3><28e>: Abbrev Number: 13 (DW_TAG_GNU_call_site_parameter)
    <28f>   DW_AT_location    : 1 byte block: 50 	(DW_OP_reg0 (r0))
    <291>   DW_AT_GNU_call_site_value: 2 byte block: 74 0 	(DW_OP_breg4 (r4): 0)
 <3><294>: Abbrev Number: 0
 <2><295>: Abbrev Number: 0
 <1><296>: Abbrev Number: 15 (DW_TAG_subprogram)
    <297>   DW_AT_external    : 1	
    <297>   DW_AT_name        : (indirect string, offset: 0xf8): enciende_ACT_LED	
    <29b>   DW_AT_decl_file   : 5	
    <29c>   DW_AT_decl_line   : 54	
    <29d>   DW_AT_declaration : 1	
    <29d>   DW_AT_sibling     : <0x2a3>	
 <2><2a1>: Abbrev Number: 9 (DW_TAG_unspecified_parameters)
 <2><2a2>: Abbrev Number: 0
 <1><2a3>: Abbrev Number: 8 (DW_TAG_subprogram)
    <2a4>   DW_AT_external    : 1	
    <2a4>   DW_AT_name        : (indirect string, offset: 0xee): bgRefresh	
    <2a8>   DW_AT_decl_file   : 1	
    <2a9>   DW_AT_decl_line   : 13	
    <2aa>   DW_AT_type        : <0x19a>	
    <2ae>   DW_AT_declaration : 1	
    <2ae>   DW_AT_sibling     : <0x2b4>	
 <2><2b2>: Abbrev Number: 9 (DW_TAG_unspecified_parameters)
 <2><2b3>: Abbrev Number: 0
 <1><2b4>: Abbrev Number: 16 (DW_TAG_subprogram)
    <2b5>   DW_AT_external    : 1	
    <2b5>   DW_AT_name        : (indirect string, offset: 0x109): RPI_esperarMicroSeconds	
    <2b9>   DW_AT_decl_file   : 4	
    <2ba>   DW_AT_decl_line   : 22	
    <2bb>   DW_AT_prototyped  : 1	
    <2bb>   DW_AT_declaration : 1	
    <2bb>   DW_AT_sibling     : <0x2c5>	
 <2><2bf>: Abbrev Number: 17 (DW_TAG_formal_parameter)
    <2c0>   DW_AT_type        : <0x1a8>	
 <2><2c4>: Abbrev Number: 0
 <1><2c5>: Abbrev Number: 15 (DW_TAG_subprogram)
    <2c6>   DW_AT_external    : 1	
    <2c6>   DW_AT_name        : (indirect string, offset: 0x1f): apaga_ACT_LED	
    <2ca>   DW_AT_decl_file   : 5	
    <2cb>   DW_AT_decl_line   : 53	
    <2cc>   DW_AT_declaration : 1	
    <2cc>   DW_AT_sibling     : <0x2d2>	
 <2><2d0>: Abbrev Number: 9 (DW_TAG_unspecified_parameters)
 <2><2d1>: Abbrev Number: 0
 <1><2d2>: Abbrev Number: 15 (DW_TAG_subprogram)
    <2d3>   DW_AT_external    : 1	
    <2d3>   DW_AT_name        : (indirect string, offset: 0x61): habilitar_GPIO_ACT_LED_output	
    <2d7>   DW_AT_decl_file   : 5	
    <2d8>   DW_AT_decl_line   : 52	
    <2d9>   DW_AT_declaration : 1	
    <2d9>   DW_AT_sibling     : <0x2df>	
 <2><2dd>: Abbrev Number: 9 (DW_TAG_unspecified_parameters)
 <2><2de>: Abbrev Number: 0
 <1><2df>: Abbrev Number: 18 (DW_TAG_subprogram)
    <2e0>   DW_AT_external    : 1	
    <2e0>   DW_AT_name        : (indirect string, offset: 0x12b): bgInit	
    <2e4>   DW_AT_decl_file   : 1	
    <2e5>   DW_AT_decl_line   : 10	
    <2e6>   DW_AT_type        : <0x19a>	
    <2ea>   DW_AT_declaration : 1	
 <2><2ea>: Abbrev Number: 9 (DW_TAG_unspecified_parameters)
 <2><2eb>: Abbrev Number: 0
 <1><2ec>: Abbrev Number: 0
  Compilation Unit @ offset 0x2ed:
   Length:        0x7b (32-bit)
   Version:       4
   Abbrev Offset: 0x13b
   Pointer Size:  4
 <0><2f8>: Abbrev Number: 1 (DW_TAG_compile_unit)
    <2f9>   DW_AT_producer    : (indirect string, offset: 0x7f): GNU C 4.8.2 -mfpu=vfp -mfloat-abi=hard -march=armv6zk -mtune=arm1176jzf-s -g -O2	
    <2fd>   DW_AT_language    : 1	(ANSI C)
    <2fe>   DW_AT_name        : (indirect string, offset: 0x15f): source/rpi-gpio.c	
    <302>   DW_AT_comp_dir    : (indirect string, offset: 0x132): /home/robert/Desktop/rasp/chapuzas/template2	
    <306>   DW_AT_low_pc      : 0x8168	
    <30a>   DW_AT_high_pc     : 0x40	
    <30e>   DW_AT_stmt_list   : 0x1e0	
 <1><312>: Abbrev Number: 2 (DW_TAG_subprogram)
    <313>   DW_AT_external    : 1	
    <313>   DW_AT_name        : (indirect string, offset: 0x61): habilitar_GPIO_ACT_LED_output	
    <317>   DW_AT_decl_file   : 1	
    <318>   DW_AT_decl_line   : 5	
    <319>   DW_AT_low_pc      : 0x8168	
    <31d>   DW_AT_high_pc     : 0x18	
    <321>   DW_AT_frame_base  : 1 byte block: 9c 	(DW_OP_call_frame_cfa)
    <323>   DW_AT_GNU_all_call_sites: 1	
 <1><323>: Abbrev Number: 2 (DW_TAG_subprogram)
    <324>   DW_AT_external    : 1	
    <324>   DW_AT_name        : (indirect string, offset: 0x1f): apaga_ACT_LED	
    <328>   DW_AT_decl_file   : 1	
    <329>   DW_AT_decl_line   : 9	
    <32a>   DW_AT_low_pc      : 0x8180	
    <32e>   DW_AT_high_pc     : 0x14	
    <332>   DW_AT_frame_base  : 1 byte block: 9c 	(DW_OP_call_frame_cfa)
    <334>   DW_AT_GNU_all_call_sites: 1	
 <1><334>: Abbrev Number: 2 (DW_TAG_subprogram)
    <335>   DW_AT_external    : 1	
    <335>   DW_AT_name        : (indirect string, offset: 0xf8): enciende_ACT_LED	
    <339>   DW_AT_decl_file   : 1	
    <33a>   DW_AT_decl_line   : 14	
    <33b>   DW_AT_low_pc      : 0x8194	
    <33f>   DW_AT_high_pc     : 0x14	
    <343>   DW_AT_frame_base  : 1 byte block: 9c 	(DW_OP_call_frame_cfa)
    <345>   DW_AT_GNU_all_call_sites: 1	
 <1><345>: Abbrev Number: 3 (DW_TAG_variable)
    <346>   DW_AT_name        : (indirect string, offset: 0x171): gpio	
    <34a>   DW_AT_decl_file   : 1	
    <34b>   DW_AT_decl_line   : 3	
    <34c>   DW_AT_type        : <0x354>	
    <350>   DW_AT_const_value : 0x20200000	
 <1><354>: Abbrev Number: 4 (DW_TAG_const_type)
    <355>   DW_AT_type        : <0x359>	
 <1><359>: Abbrev Number: 5 (DW_TAG_pointer_type)
    <35a>   DW_AT_byte_size   : 4	
    <35b>   DW_AT_type        : <0x35f>	
 <1><35f>: Abbrev Number: 6 (DW_TAG_volatile_type)
    <360>   DW_AT_type        : <0x364>	
 <1><364>: Abbrev Number: 7 (DW_TAG_base_type)
    <365>   DW_AT_byte_size   : 4	
    <366>   DW_AT_encoding    : 7	(unsigned)
    <367>   DW_AT_name        : (indirect string, offset: 0x3c): unsigned int	
 <1><36b>: Abbrev Number: 0
  Compilation Unit @ offset 0x36c:
   Length:        0x149 (32-bit)
   Version:       4
   Abbrev Offset: 0x196
   Pointer Size:  4
 <0><377>: Abbrev Number: 1 (DW_TAG_compile_unit)
    <378>   DW_AT_producer    : (indirect string, offset: 0x7f): GNU C 4.8.2 -mfpu=vfp -mfloat-abi=hard -march=armv6zk -mtune=arm1176jzf-s -g -O2	
    <37c>   DW_AT_language    : 1	(ANSI C)
    <37d>   DW_AT_name        : (indirect string, offset: 0x1f1): source/rpi-systimer.c	
    <381>   DW_AT_comp_dir    : (indirect string, offset: 0x132): /home/robert/Desktop/rasp/chapuzas/template2	
    <385>   DW_AT_low_pc      : 0x81a8	
    <389>   DW_AT_high_pc     : 0x3c	
    <38d>   DW_AT_stmt_list   : 0x224	
 <1><391>: Abbrev Number: 2 (DW_TAG_base_type)
    <392>   DW_AT_byte_size   : 1	
    <393>   DW_AT_encoding    : 6	(signed char)
    <394>   DW_AT_name        : (indirect string, offset: 0x55): signed char	
 <1><398>: Abbrev Number: 2 (DW_TAG_base_type)
    <399>   DW_AT_byte_size   : 1	
    <39a>   DW_AT_encoding    : 8	(unsigned char)
    <39b>   DW_AT_name        : (indirect string, offset: 0x53): unsigned char	
 <1><39f>: Abbrev Number: 2 (DW_TAG_base_type)
    <3a0>   DW_AT_byte_size   : 2	
    <3a1>   DW_AT_encoding    : 5	(signed)
    <3a2>   DW_AT_name        : (indirect string, offset: 0x121): short int	
 <1><3a6>: Abbrev Number: 2 (DW_TAG_base_type)
    <3a7>   DW_AT_byte_size   : 2	
    <3a8>   DW_AT_encoding    : 7	(unsigned)
    <3a9>   DW_AT_name        : (indirect string, offset: 0xdb): short unsigned int	
 <1><3ad>: Abbrev Number: 2 (DW_TAG_base_type)
    <3ae>   DW_AT_byte_size   : 4	
    <3af>   DW_AT_encoding    : 5	(signed)
    <3b0>   DW_AT_name        : (indirect string, offset: 0x5): long int	
 <1><3b4>: Abbrev Number: 3 (DW_TAG_typedef)
    <3b5>   DW_AT_name        : (indirect string, offset: 0xd0): __uint32_t	
    <3b9>   DW_AT_decl_file   : 2	
    <3ba>   DW_AT_decl_line   : 56	
    <3bb>   DW_AT_type        : <0x3bf>	
 <1><3bf>: Abbrev Number: 2 (DW_TAG_base_type)
    <3c0>   DW_AT_byte_size   : 4	
    <3c1>   DW_AT_encoding    : 7	(unsigned)
    <3c2>   DW_AT_name        : (indirect string, offset: 0x37): long unsigned int	
 <1><3c6>: Abbrev Number: 2 (DW_TAG_base_type)
    <3c7>   DW_AT_byte_size   : 8	
    <3c8>   DW_AT_encoding    : 5	(signed)
    <3c9>   DW_AT_name        : (indirect string, offset: 0x0): long long int	
 <1><3cd>: Abbrev Number: 2 (DW_TAG_base_type)
    <3ce>   DW_AT_byte_size   : 8	
    <3cf>   DW_AT_encoding    : 7	(unsigned)
    <3d0>   DW_AT_name        : (indirect string, offset: 0x32): long long unsigned int	
 <1><3d4>: Abbrev Number: 4 (DW_TAG_base_type)
    <3d5>   DW_AT_byte_size   : 4	
    <3d6>   DW_AT_encoding    : 5	(signed)
    <3d7>   DW_AT_name        : int	
 <1><3db>: Abbrev Number: 2 (DW_TAG_base_type)
    <3dc>   DW_AT_byte_size   : 4	
    <3dd>   DW_AT_encoding    : 7	(unsigned)
    <3de>   DW_AT_name        : (indirect string, offset: 0x3c): unsigned int	
 <1><3e2>: Abbrev Number: 3 (DW_TAG_typedef)
    <3e3>   DW_AT_name        : (indirect string, offset: 0xd2): uint32_t	
    <3e7>   DW_AT_decl_file   : 3	
    <3e8>   DW_AT_decl_line   : 66	
    <3e9>   DW_AT_type        : <0x3b4>	
 <1><3ed>: Abbrev Number: 5 (DW_TAG_structure_type)
    <3ee>   DW_AT_byte_size   : 28	
    <3ef>   DW_AT_decl_file   : 4	
    <3f0>   DW_AT_decl_line   : 10	
    <3f1>   DW_AT_sibling     : <0x44a>	
 <2><3f5>: Abbrev Number: 6 (DW_TAG_member)
    <3f6>   DW_AT_name        : (indirect string, offset: 0x1a5): control_status	
    <3fa>   DW_AT_decl_file   : 4	
    <3fb>   DW_AT_decl_line   : 11	
    <3fc>   DW_AT_type        : <0x44a>	
    <400>   DW_AT_data_member_location: 0	
 <2><401>: Abbrev Number: 6 (DW_TAG_member)
    <402>   DW_AT_name        : (indirect string, offset: 0x1b4): counter_lo	
    <406>   DW_AT_decl_file   : 4	
    <407>   DW_AT_decl_line   : 12	
    <408>   DW_AT_type        : <0x44a>	
    <40c>   DW_AT_data_member_location: 4	
 <2><40d>: Abbrev Number: 6 (DW_TAG_member)
    <40e>   DW_AT_name        : (indirect string, offset: 0x19a): counter_hi	
    <412>   DW_AT_decl_file   : 4	
    <413>   DW_AT_decl_line   : 13	
    <414>   DW_AT_type        : <0x44a>	
    <418>   DW_AT_data_member_location: 8	
 <2><419>: Abbrev Number: 6 (DW_TAG_member)
    <41a>   DW_AT_name        : (indirect string, offset: 0x176): compare0	
    <41e>   DW_AT_decl_file   : 4	
    <41f>   DW_AT_decl_line   : 14	
    <420>   DW_AT_type        : <0x44a>	
    <424>   DW_AT_data_member_location: 12	
 <2><425>: Abbrev Number: 6 (DW_TAG_member)
    <426>   DW_AT_name        : (indirect string, offset: 0x17f): compare1	
    <42a>   DW_AT_decl_file   : 4	
    <42b>   DW_AT_decl_line   : 15	
    <42c>   DW_AT_type        : <0x44a>	
    <430>   DW_AT_data_member_location: 16	
 <2><431>: Abbrev Number: 6 (DW_TAG_member)
    <432>   DW_AT_name        : (indirect string, offset: 0x188): compare2	
    <436>   DW_AT_decl_file   : 4	
    <437>   DW_AT_decl_line   : 16	
    <438>   DW_AT_type        : <0x44a>	
    <43c>   DW_AT_data_member_location: 20	
 <2><43d>: Abbrev Number: 6 (DW_TAG_member)
    <43e>   DW_AT_name        : (indirect string, offset: 0x191): compare3	
    <442>   DW_AT_decl_file   : 4	
    <443>   DW_AT_decl_line   : 17	
    <444>   DW_AT_type        : <0x44a>	
    <448>   DW_AT_data_member_location: 24	
 <2><449>: Abbrev Number: 0
 <1><44a>: Abbrev Number: 7 (DW_TAG_volatile_type)
    <44b>   DW_AT_type        : <0x3e2>	
 <1><44f>: Abbrev Number: 3 (DW_TAG_typedef)
    <450>   DW_AT_name        : (indirect string, offset: 0x1d2): rpi_sys_timer_t	
    <454>   DW_AT_decl_file   : 4	
    <455>   DW_AT_decl_line   : 18	
    <456>   DW_AT_type        : <0x3ed>	
 <1><45a>: Abbrev Number: 8 (DW_TAG_subprogram)
    <45b>   DW_AT_external    : 1	
    <45b>   DW_AT_name        : (indirect string, offset: 0x1bf): RPI_GetSystemTimer	
    <45f>   DW_AT_decl_file   : 1	
    <460>   DW_AT_decl_line   : 5	
    <461>   DW_AT_prototyped  : 1	
    <461>   DW_AT_type        : <0x46f>	
    <465>   DW_AT_low_pc      : 0x81a8	
    <469>   DW_AT_high_pc     : 0xc	
    <46d>   DW_AT_frame_base  : 1 byte block: 9c 	(DW_OP_call_frame_cfa)
    <46f>   DW_AT_GNU_all_call_sites: 1	
 <1><46f>: Abbrev Number: 9 (DW_TAG_pointer_type)
    <470>   DW_AT_byte_size   : 4	
    <471>   DW_AT_type        : <0x44f>	
 <1><475>: Abbrev Number: 10 (DW_TAG_subprogram)
    <476>   DW_AT_external    : 1	
    <476>   DW_AT_name        : (indirect string, offset: 0x109): RPI_esperarMicroSeconds	
    <47a>   DW_AT_decl_file   : 1	
    <47b>   DW_AT_decl_line   : 10	
    <47c>   DW_AT_prototyped  : 1	
    <47c>   DW_AT_low_pc      : 0x81b4	
    <480>   DW_AT_high_pc     : 0x30	
    <484>   DW_AT_frame_base  : 1 byte block: 9c 	(DW_OP_call_frame_cfa)
    <486>   DW_AT_GNU_all_call_sites: 1	
    <486>   DW_AT_sibling     : <0x4a4>	
 <2><48a>: Abbrev Number: 11 (DW_TAG_formal_parameter)
    <48b>   DW_AT_name        : us	
    <48e>   DW_AT_decl_file   : 1	
    <48f>   DW_AT_decl_line   : 10	
    <490>   DW_AT_type        : <0x3e2>	
    <494>   DW_AT_location    : 1 byte block: 50 	(DW_OP_reg0 (r0))
 <2><496>: Abbrev Number: 12 (DW_TAG_variable)
    <497>   DW_AT_name        : ts	
    <49a>   DW_AT_decl_file   : 1	
    <49b>   DW_AT_decl_line   : 12	
    <49c>   DW_AT_type        : <0x44a>	
    <4a0>   DW_AT_location    : 2 byte block: 91 7c 	(DW_OP_fbreg: -4)
 <2><4a3>: Abbrev Number: 0
 <1><4a4>: Abbrev Number: 13 (DW_TAG_variable)
    <4a5>   DW_AT_name        : (indirect string, offset: 0x1e2): rpiSystemTimer	
    <4a9>   DW_AT_decl_file   : 1	
    <4aa>   DW_AT_decl_line   : 3	
    <4ab>   DW_AT_type        : <0x4b3>	
    <4af>   DW_AT_const_value : 0x20003000	
 <1><4b3>: Abbrev Number: 14 (DW_TAG_const_type)
    <4b4>   DW_AT_type        : <0x46f>	
 <1><4b8>: Abbrev Number: 0
  Compilation Unit @ offset 0x4b9:
   Length:        0x538 (32-bit)
   Version:       4
   Abbrev Offset: 0x261
   Pointer Size:  4
 <0><4c4>: Abbrev Number: 1 (DW_TAG_compile_unit)
    <4c5>   DW_AT_producer    : (indirect string, offset: 0x7f): GNU C 4.8.2 -mfpu=vfp -mfloat-abi=hard -march=armv6zk -mtune=arm1176jzf-s -g -O2	
    <4c9>   DW_AT_language    : 1	(ANSI C)
    <4ca>   DW_AT_name        : (indirect string, offset: 0x33f): source/gpuFrameBuffer.c	
    <4ce>   DW_AT_comp_dir    : (indirect string, offset: 0x132): /home/robert/Desktop/rasp/chapuzas/template2	
    <4d2>   DW_AT_low_pc      : 0x81e4	
    <4d6>   DW_AT_high_pc     : 0x2e0	
    <4da>   DW_AT_stmt_list   : 0x2d4	
 <1><4de>: Abbrev Number: 2 (DW_TAG_typedef)
    <4df>   DW_AT_name        : (indirect string, offset: 0x30b): __int8_t	
    <4e3>   DW_AT_decl_file   : 2	
    <4e4>   DW_AT_decl_line   : 27	
    <4e5>   DW_AT_type        : <0x4e9>	
 <1><4e9>: Abbrev Number: 3 (DW_TAG_base_type)
    <4ea>   DW_AT_byte_size   : 1	
    <4eb>   DW_AT_encoding    : 6	(signed char)
    <4ec>   DW_AT_name        : (indirect string, offset: 0x55): signed char	
 <1><4f0>: Abbrev Number: 2 (DW_TAG_typedef)
    <4f1>   DW_AT_name        : (indirect string, offset: 0x2c1): __uint8_t	
    <4f5>   DW_AT_decl_file   : 2	
    <4f6>   DW_AT_decl_line   : 28	
    <4f7>   DW_AT_type        : <0x4fb>	
 <1><4fb>: Abbrev Number: 3 (DW_TAG_base_type)
    <4fc>   DW_AT_byte_size   : 1	
    <4fd>   DW_AT_encoding    : 8	(unsigned char)
    <4fe>   DW_AT_name        : (indirect string, offset: 0x53): unsigned char	
 <1><502>: Abbrev Number: 3 (DW_TAG_base_type)
    <503>   DW_AT_byte_size   : 2	
    <504>   DW_AT_encoding    : 5	(signed)
    <505>   DW_AT_name        : (indirect string, offset: 0x121): short int	
 <1><509>: Abbrev Number: 2 (DW_TAG_typedef)
    <50a>   DW_AT_name        : (indirect string, offset: 0x25f): __uint16_t	
    <50e>   DW_AT_decl_file   : 2	
    <50f>   DW_AT_decl_line   : 38	
    <510>   DW_AT_type        : <0x514>	
 <1><514>: Abbrev Number: 3 (DW_TAG_base_type)
    <515>   DW_AT_byte_size   : 2	
    <516>   DW_AT_encoding    : 7	(unsigned)
    <517>   DW_AT_name        : (indirect string, offset: 0xdb): short unsigned int	
 <1><51b>: Abbrev Number: 2 (DW_TAG_typedef)
    <51c>   DW_AT_name        : (indirect string, offset: 0x357): __int32_t	
    <520>   DW_AT_decl_file   : 2	
    <521>   DW_AT_decl_line   : 55	
    <522>   DW_AT_type        : <0x526>	
 <1><526>: Abbrev Number: 3 (DW_TAG_base_type)
    <527>   DW_AT_byte_size   : 4	
    <528>   DW_AT_encoding    : 5	(signed)
    <529>   DW_AT_name        : (indirect string, offset: 0x5): long int	
 <1><52d>: Abbrev Number: 2 (DW_TAG_typedef)
    <52e>   DW_AT_name        : (indirect string, offset: 0xd0): __uint32_t	
    <532>   DW_AT_decl_file   : 2	
    <533>   DW_AT_decl_line   : 56	
    <534>   DW_AT_type        : <0x538>	
 <1><538>: Abbrev Number: 3 (DW_TAG_base_type)
    <539>   DW_AT_byte_size   : 4	
    <53a>   DW_AT_encoding    : 7	(unsigned)
    <53b>   DW_AT_name        : (indirect string, offset: 0x37): long unsigned int	
 <1><53f>: Abbrev Number: 3 (DW_TAG_base_type)
    <540>   DW_AT_byte_size   : 8	
    <541>   DW_AT_encoding    : 5	(signed)
    <542>   DW_AT_name        : (indirect string, offset: 0x0): long long int	
 <1><546>: Abbrev Number: 3 (DW_TAG_base_type)
    <547>   DW_AT_byte_size   : 8	
    <548>   DW_AT_encoding    : 7	(unsigned)
    <549>   DW_AT_name        : (indirect string, offset: 0x32): long long unsigned int	
 <1><54d>: Abbrev Number: 4 (DW_TAG_base_type)
    <54e>   DW_AT_byte_size   : 4	
    <54f>   DW_AT_encoding    : 5	(signed)
    <550>   DW_AT_name        : int	
 <1><554>: Abbrev Number: 3 (DW_TAG_base_type)
    <555>   DW_AT_byte_size   : 4	
    <556>   DW_AT_encoding    : 7	(unsigned)
    <557>   DW_AT_name        : (indirect string, offset: 0x3c): unsigned int	
 <1><55b>: Abbrev Number: 2 (DW_TAG_typedef)
    <55c>   DW_AT_name        : (indirect string, offset: 0x30d): int8_t	
    <560>   DW_AT_decl_file   : 3	
    <561>   DW_AT_decl_line   : 41	
    <562>   DW_AT_type        : <0x4de>	
 <1><566>: Abbrev Number: 2 (DW_TAG_typedef)
    <567>   DW_AT_name        : (indirect string, offset: 0x2c3): uint8_t	
    <56b>   DW_AT_decl_file   : 3	
    <56c>   DW_AT_decl_line   : 42	
    <56d>   DW_AT_type        : <0x4f0>	
 <1><571>: Abbrev Number: 2 (DW_TAG_typedef)
    <572>   DW_AT_name        : (indirect string, offset: 0x261): uint16_t	
    <576>   DW_AT_decl_file   : 3	
    <577>   DW_AT_decl_line   : 54	
    <578>   DW_AT_type        : <0x509>	
 <1><57c>: Abbrev Number: 2 (DW_TAG_typedef)
    <57d>   DW_AT_name        : (indirect string, offset: 0x359): int32_t	
    <581>   DW_AT_decl_file   : 3	
    <582>   DW_AT_decl_line   : 65	
    <583>   DW_AT_type        : <0x51b>	
 <1><587>: Abbrev Number: 2 (DW_TAG_typedef)
    <588>   DW_AT_name        : (indirect string, offset: 0xd2): uint32_t	
    <58c>   DW_AT_decl_file   : 3	
    <58d>   DW_AT_decl_line   : 66	
    <58e>   DW_AT_type        : <0x52d>	
 <1><592>: Abbrev Number: 5 (DW_TAG_structure_type)
    <593>   DW_AT_byte_size   : 40	
    <594>   DW_AT_decl_file   : 4	
    <595>   DW_AT_decl_line   : 34	
    <596>   DW_AT_sibling     : <0x60f>	
 <2><59a>: Abbrev Number: 6 (DW_TAG_member)
    <59b>   DW_AT_name        : (indirect string, offset: 0x231): pWidth	
    <59f>   DW_AT_decl_file   : 4	
    <5a0>   DW_AT_decl_line   : 36	
    <5a1>   DW_AT_type        : <0x60f>	
    <5a5>   DW_AT_data_member_location: 0	
 <2><5a6>: Abbrev Number: 6 (DW_TAG_member)
    <5a7>   DW_AT_name        : (indirect string, offset: 0x31a): pHeight	
    <5ab>   DW_AT_decl_file   : 4	
    <5ac>   DW_AT_decl_line   : 37	
    <5ad>   DW_AT_type        : <0x60f>	
    <5b1>   DW_AT_data_member_location: 4	
 <2><5b2>: Abbrev Number: 6 (DW_TAG_member)
    <5b3>   DW_AT_name        : (indirect string, offset: 0x22a): vWidth	
    <5b7>   DW_AT_decl_file   : 4	
    <5b8>   DW_AT_decl_line   : 38	
    <5b9>   DW_AT_type        : <0x60f>	
    <5bd>   DW_AT_data_member_location: 8	
 <2><5be>: Abbrev Number: 6 (DW_TAG_member)
    <5bf>   DW_AT_name        : (indirect string, offset: 0x2f3): vHeight	
    <5c3>   DW_AT_decl_file   : 4	
    <5c4>   DW_AT_decl_line   : 39	
    <5c5>   DW_AT_type        : <0x60f>	
    <5c9>   DW_AT_data_member_location: 12	
 <2><5ca>: Abbrev Number: 6 (DW_TAG_member)
    <5cb>   DW_AT_name        : (indirect string, offset: 0x3bf): pitch	
    <5cf>   DW_AT_decl_file   : 4	
    <5d0>   DW_AT_decl_line   : 40	
    <5d1>   DW_AT_type        : <0x60f>	
    <5d5>   DW_AT_data_member_location: 16	
 <2><5d6>: Abbrev Number: 6 (DW_TAG_member)
    <5d7>   DW_AT_name        : (indirect string, offset: 0x3d3): cMode	
    <5db>   DW_AT_decl_file   : 4	
    <5dc>   DW_AT_decl_line   : 41	
    <5dd>   DW_AT_type        : <0x60f>	
    <5e1>   DW_AT_data_member_location: 20	
 <2><5e2>: Abbrev Number: 7 (DW_TAG_member)
    <5e3>   DW_AT_name        : x	
    <5e5>   DW_AT_decl_file   : 4	
    <5e6>   DW_AT_decl_line   : 42	
    <5e7>   DW_AT_type        : <0x60f>	
    <5eb>   DW_AT_data_member_location: 24	
 <2><5ec>: Abbrev Number: 7 (DW_TAG_member)
    <5ed>   DW_AT_name        : y	
    <5ef>   DW_AT_decl_file   : 4	
    <5f0>   DW_AT_decl_line   : 43	
    <5f1>   DW_AT_type        : <0x60f>	
    <5f5>   DW_AT_data_member_location: 28	
 <2><5f6>: Abbrev Number: 6 (DW_TAG_member)
    <5f7>   DW_AT_name        : (indirect string, offset: 0x361): pointer	
    <5fb>   DW_AT_decl_file   : 4	
    <5fc>   DW_AT_decl_line   : 44	
    <5fd>   DW_AT_type        : <0x60f>	
    <601>   DW_AT_data_member_location: 32	
 <2><602>: Abbrev Number: 6 (DW_TAG_member)
    <603>   DW_AT_name        : (indirect string, offset: 0x33a): size	
    <607>   DW_AT_decl_file   : 4	
    <608>   DW_AT_decl_line   : 45	
    <609>   DW_AT_type        : <0x60f>	
    <60d>   DW_AT_data_member_location: 36	
 <2><60e>: Abbrev Number: 0
 <1><60f>: Abbrev Number: 8 (DW_TAG_volatile_type)
    <610>   DW_AT_type        : <0x587>	
 <1><614>: Abbrev Number: 2 (DW_TAG_typedef)
    <615>   DW_AT_name        : (indirect string, offset: 0x39e): rpi_gpu_framebuffer_descriptor_t	
    <619>   DW_AT_decl_file   : 4	
    <61a>   DW_AT_decl_line   : 48	
    <61b>   DW_AT_type        : <0x592>	
 <1><61f>: Abbrev Number: 5 (DW_TAG_structure_type)
    <620>   DW_AT_byte_size   : 36	
    <621>   DW_AT_decl_file   : 4	
    <622>   DW_AT_decl_line   : 51	
    <623>   DW_AT_sibling     : <0x694>	
 <2><627>: Abbrev Number: 6 (DW_TAG_member)
    <628>   DW_AT_name        : (indirect string, offset: 0x334): read1	
    <62c>   DW_AT_decl_file   : 4	
    <62d>   DW_AT_decl_line   : 53	
    <62e>   DW_AT_type        : <0x60f>	
    <632>   DW_AT_data_member_location: 0	
 <2><633>: Abbrev Number: 6 (DW_TAG_member)
    <634>   DW_AT_name        : (indirect string, offset: 0x2a8): read2	
    <638>   DW_AT_decl_file   : 4	
    <639>   DW_AT_decl_line   : 54	
    <63a>   DW_AT_type        : <0x60f>	
    <63e>   DW_AT_data_member_location: 4	
 <2><63f>: Abbrev Number: 6 (DW_TAG_member)
    <640>   DW_AT_name        : (indirect string, offset: 0x2ae): read3	
    <644>   DW_AT_decl_file   : 4	
    <645>   DW_AT_decl_line   : 55	
    <646>   DW_AT_type        : <0x60f>	
    <64a>   DW_AT_data_member_location: 8	
 <2><64b>: Abbrev Number: 6 (DW_TAG_member)
    <64c>   DW_AT_name        : (indirect string, offset: 0x2b4): read4	
    <650>   DW_AT_decl_file   : 4	
    <651>   DW_AT_decl_line   : 56	
    <652>   DW_AT_type        : <0x60f>	
    <656>   DW_AT_data_member_location: 12	
 <2><657>: Abbrev Number: 6 (DW_TAG_member)
    <658>   DW_AT_name        : (indirect string, offset: 0x238): poll	
    <65c>   DW_AT_decl_file   : 4	
    <65d>   DW_AT_decl_line   : 57	
    <65e>   DW_AT_type        : <0x60f>	
    <662>   DW_AT_data_member_location: 16	
 <2><663>: Abbrev Number: 6 (DW_TAG_member)
    <664>   DW_AT_name        : (indirect string, offset: 0x274): sender	
    <668>   DW_AT_decl_file   : 4	
    <669>   DW_AT_decl_line   : 58	
    <66a>   DW_AT_type        : <0x60f>	
    <66e>   DW_AT_data_member_location: 20	
 <2><66f>: Abbrev Number: 6 (DW_TAG_member)
    <670>   DW_AT_name        : (indirect string, offset: 0x1ad): status	
    <674>   DW_AT_decl_file   : 4	
    <675>   DW_AT_decl_line   : 59	
    <676>   DW_AT_type        : <0x60f>	
    <67a>   DW_AT_data_member_location: 24	
 <2><67b>: Abbrev Number: 6 (DW_TAG_member)
    <67c>   DW_AT_name        : (indirect string, offset: 0x2de): configuration	
    <680>   DW_AT_decl_file   : 4	
    <681>   DW_AT_decl_line   : 60	
    <682>   DW_AT_type        : <0x60f>	
    <686>   DW_AT_data_member_location: 28	
 <2><687>: Abbrev Number: 6 (DW_TAG_member)
    <688>   DW_AT_name        : (indirect string, offset: 0x314): write	
    <68c>   DW_AT_decl_file   : 4	
    <68d>   DW_AT_decl_line   : 61	
    <68e>   DW_AT_type        : <0x60f>	
    <692>   DW_AT_data_member_location: 32	
 <2><693>: Abbrev Number: 0
 <1><694>: Abbrev Number: 2 (DW_TAG_typedef)
    <695>   DW_AT_name        : (indirect string, offset: 0x369): rpi_gpu_mailbox_t	
    <699>   DW_AT_decl_file   : 4	
    <69a>   DW_AT_decl_line   : 62	
    <69b>   DW_AT_type        : <0x61f>	
 <1><69f>: Abbrev Number: 9 (DW_TAG_subprogram)
    <6a0>   DW_AT_external    : 1	
    <6a0>   DW_AT_name        : (indirect string, offset: 0x3d9): setPixel	
    <6a4>   DW_AT_decl_file   : 1	
    <6a5>   DW_AT_decl_line   : 62	
    <6a6>   DW_AT_prototyped  : 1	
    <6a6>   DW_AT_inline      : 1	(inlined)
    <6a7>   DW_AT_sibling     : <0x6e3>	
 <2><6ab>: Abbrev Number: 10 (DW_TAG_formal_parameter)
    <6ac>   DW_AT_name        : (indirect string, offset: 0x37b): posX	
    <6b0>   DW_AT_decl_file   : 1	
    <6b1>   DW_AT_decl_line   : 62	
    <6b2>   DW_AT_type        : <0x57c>	
 <2><6b6>: Abbrev Number: 10 (DW_TAG_formal_parameter)
    <6b7>   DW_AT_name        : (indirect string, offset: 0x380): posY	
    <6bb>   DW_AT_decl_file   : 1	
    <6bc>   DW_AT_decl_line   : 62	
    <6bd>   DW_AT_type        : <0x57c>	
 <2><6c1>: Abbrev Number: 10 (DW_TAG_formal_parameter)
    <6c2>   DW_AT_name        : (indirect string, offset: 0x26a): Colour16b	
    <6c6>   DW_AT_decl_file   : 1	
    <6c7>   DW_AT_decl_line   : 62	
    <6c8>   DW_AT_type        : <0x571>	
 <2><6cc>: Abbrev Number: 11 (DW_TAG_variable)
    <6cd>   DW_AT_name        : ptr	
    <6d1>   DW_AT_decl_file   : 1	
    <6d2>   DW_AT_decl_line   : 65	
    <6d3>   DW_AT_type        : <0x6e3>	
 <2><6d7>: Abbrev Number: 12 (DW_TAG_variable)
    <6d8>   DW_AT_name        : (indirect string, offset: 0x2ba): offset	
    <6dc>   DW_AT_decl_file   : 1	
    <6dd>   DW_AT_decl_line   : 66	
    <6de>   DW_AT_type        : <0x587>	
 <2><6e2>: Abbrev Number: 0
 <1><6e3>: Abbrev Number: 13 (DW_TAG_pointer_type)
    <6e4>   DW_AT_byte_size   : 4	
    <6e5>   DW_AT_type        : <0x571>	
 <1><6e9>: Abbrev Number: 14 (DW_TAG_subprogram)
    <6ea>   DW_AT_external    : 1	
    <6ea>   DW_AT_name        : (indirect string, offset: 0x385): RPI_GetFrameBufferDescpr	
    <6ee>   DW_AT_decl_file   : 1	
    <6ef>   DW_AT_decl_line   : 13	
    <6f0>   DW_AT_prototyped  : 1	
    <6f0>   DW_AT_type        : <0x6fe>	
    <6f4>   DW_AT_low_pc      : 0x81e4	
    <6f8>   DW_AT_high_pc     : 0xc	
    <6fc>   DW_AT_frame_base  : 1 byte block: 9c 	(DW_OP_call_frame_cfa)
    <6fe>   DW_AT_GNU_all_call_sites: 1	
 <1><6fe>: Abbrev Number: 13 (DW_TAG_pointer_type)
    <6ff>   DW_AT_byte_size   : 4	
    <700>   DW_AT_type        : <0x614>	
 <1><704>: Abbrev Number: 15 (DW_TAG_subprogram)
    <705>   DW_AT_external    : 1	
    <705>   DW_AT_name        : (indirect string, offset: 0x212): paintEntireScreen	
    <709>   DW_AT_decl_file   : 1	
    <70a>   DW_AT_decl_line   : 19	
    <70b>   DW_AT_prototyped  : 1	
    <70b>   DW_AT_low_pc      : 0x81f0	
    <70f>   DW_AT_high_pc     : 0x5c	
    <713>   DW_AT_frame_base  : 1 byte block: 9c 	(DW_OP_call_frame_cfa)
    <715>   DW_AT_GNU_all_call_sites: 1	
    <715>   DW_AT_sibling     : <0x74e>	
 <2><719>: Abbrev Number: 16 (DW_TAG_formal_parameter)
    <71a>   DW_AT_name        : (indirect string, offset: 0x26a): Colour16b	
    <71e>   DW_AT_decl_file   : 1	
    <71f>   DW_AT_decl_line   : 19	
    <720>   DW_AT_type        : <0x571>	
    <724>   DW_AT_location    : 1 byte block: 50 	(DW_OP_reg0 (r0))
 <2><726>: Abbrev Number: 17 (DW_TAG_variable)
    <727>   DW_AT_name        : (indirect string, offset: 0x224): pixel	
    <72b>   DW_AT_decl_file   : 1	
    <72c>   DW_AT_decl_line   : 21	
    <72d>   DW_AT_type        : <0x6e3>	
    <731>   DW_AT_location    : 1 byte block: 52 	(DW_OP_reg2 (r2))
 <2><733>: Abbrev Number: 18 (DW_TAG_variable)
    <734>   DW_AT_name        : x	
    <736>   DW_AT_decl_file   : 1	
    <737>   DW_AT_decl_line   : 22	
    <738>   DW_AT_type        : <0x587>	
    <73c>   DW_AT_location    : 0x60	(location list)
 <2><740>: Abbrev Number: 18 (DW_TAG_variable)
    <741>   DW_AT_name        : y	
    <743>   DW_AT_decl_file   : 1	
    <744>   DW_AT_decl_line   : 22	
    <745>   DW_AT_type        : <0x587>	
    <749>   DW_AT_location    : 0x7f	(location list)
 <2><74d>: Abbrev Number: 0
 <1><74e>: Abbrev Number: 15 (DW_TAG_subprogram)
    <74f>   DW_AT_external    : 1	
    <74f>   DW_AT_name        : (indirect string, offset: 0x4c2): line	
    <753>   DW_AT_decl_file   : 1	
    <754>   DW_AT_decl_line   : 28	
    <755>   DW_AT_prototyped  : 1	
    <755>   DW_AT_low_pc      : 0x824c	
    <759>   DW_AT_high_pc     : 0xf8	
    <75d>   DW_AT_frame_base  : 1 byte block: 9c 	(DW_OP_call_frame_cfa)
    <75f>   DW_AT_GNU_all_call_sites: 1	
    <75f>   DW_AT_sibling     : <0x830>	
 <2><763>: Abbrev Number: 19 (DW_TAG_formal_parameter)
    <764>   DW_AT_name        : x0	
    <767>   DW_AT_decl_file   : 1	
    <768>   DW_AT_decl_line   : 28	
    <769>   DW_AT_type        : <0x57c>	
    <76d>   DW_AT_location    : 0x9e	(location list)
 <2><771>: Abbrev Number: 19 (DW_TAG_formal_parameter)
    <772>   DW_AT_name        : y0	
    <775>   DW_AT_decl_file   : 1	
    <776>   DW_AT_decl_line   : 28	
    <777>   DW_AT_type        : <0x57c>	
    <77b>   DW_AT_location    : 0xbc	(location list)
 <2><77f>: Abbrev Number: 19 (DW_TAG_formal_parameter)
    <780>   DW_AT_name        : x1	
    <783>   DW_AT_decl_file   : 1	
    <784>   DW_AT_decl_line   : 28	
    <785>   DW_AT_type        : <0x57c>	
    <789>   DW_AT_location    : 0xda	(location list)
 <2><78d>: Abbrev Number: 19 (DW_TAG_formal_parameter)
    <78e>   DW_AT_name        : y1	
    <791>   DW_AT_decl_file   : 1	
    <792>   DW_AT_decl_line   : 28	
    <793>   DW_AT_type        : <0x57c>	
    <797>   DW_AT_location    : 0x106	(location list)
 <2><79b>: Abbrev Number: 16 (DW_TAG_formal_parameter)
    <79c>   DW_AT_name        : (indirect string, offset: 0x26a): Colour16b	
    <7a0>   DW_AT_decl_file   : 1	
    <7a1>   DW_AT_decl_line   : 28	
    <7a2>   DW_AT_type        : <0x571>	
    <7a6>   DW_AT_location    : 2 byte block: 91 0 	(DW_OP_fbreg: 0)
 <2><7a9>: Abbrev Number: 18 (DW_TAG_variable)
    <7aa>   DW_AT_name        : dx	
    <7ad>   DW_AT_decl_file   : 1	
    <7ae>   DW_AT_decl_line   : 29	
    <7af>   DW_AT_type        : <0x57c>	
    <7b3>   DW_AT_location    : 0x132	(location list)
 <2><7b7>: Abbrev Number: 18 (DW_TAG_variable)
    <7b8>   DW_AT_name        : sx	
    <7bb>   DW_AT_decl_file   : 1	
    <7bc>   DW_AT_decl_line   : 30	
    <7bd>   DW_AT_type        : <0x57c>	
    <7c1>   DW_AT_location    : 0x15b	(location list)
 <2><7c5>: Abbrev Number: 18 (DW_TAG_variable)
    <7c6>   DW_AT_name        : dy	
    <7c9>   DW_AT_decl_file   : 1	
    <7ca>   DW_AT_decl_line   : 31	
    <7cb>   DW_AT_type        : <0x57c>	
    <7cf>   DW_AT_location    : 0x179	(location list)
 <2><7d3>: Abbrev Number: 18 (DW_TAG_variable)
    <7d4>   DW_AT_name        : sy	
    <7d7>   DW_AT_decl_file   : 1	
    <7d8>   DW_AT_decl_line   : 32	
    <7d9>   DW_AT_type        : <0x57c>	
    <7dd>   DW_AT_location    : 0x1a3	(location list)
 <2><7e1>: Abbrev Number: 18 (DW_TAG_variable)
    <7e2>   DW_AT_name        : err	
    <7e6>   DW_AT_decl_file   : 1	
    <7e7>   DW_AT_decl_line   : 33	
    <7e8>   DW_AT_type        : <0x57c>	
    <7ec>   DW_AT_location    : 0x1b7	(location list)
 <2><7f0>: Abbrev Number: 20 (DW_TAG_inlined_subroutine)
    <7f1>   DW_AT_abstract_origin: <0x69f>	
    <7f5>   DW_AT_entry_pc    : 0x8298	
    <7f9>   DW_AT_ranges      : 0x10	
    <7fd>   DW_AT_call_file   : 1	
    <7fe>   DW_AT_call_line   : 42	
 <3><7ff>: Abbrev Number: 21 (DW_TAG_formal_parameter)
    <800>   DW_AT_abstract_origin: <0x6c1>	
 <3><804>: Abbrev Number: 22 (DW_TAG_formal_parameter)
    <805>   DW_AT_abstract_origin: <0x6b6>	
    <809>   DW_AT_location    : 0x1d5	(location list)
 <3><80d>: Abbrev Number: 22 (DW_TAG_formal_parameter)
    <80e>   DW_AT_abstract_origin: <0x6ab>	
    <812>   DW_AT_location    : 0x1e8	(location list)
 <3><816>: Abbrev Number: 23 (DW_TAG_lexical_block)
    <817>   DW_AT_ranges      : 0x10	
 <4><81b>: Abbrev Number: 24 (DW_TAG_variable)
    <81c>   DW_AT_abstract_origin: <0x6cc>	
    <820>   DW_AT_location    : 0x206	(location list)
 <4><824>: Abbrev Number: 24 (DW_TAG_variable)
    <825>   DW_AT_abstract_origin: <0x6d7>	
    <829>   DW_AT_location    : 0x226	(location list)
 <4><82d>: Abbrev Number: 0
 <3><82e>: Abbrev Number: 0
 <2><82f>: Abbrev Number: 0
 <1><830>: Abbrev Number: 25 (DW_TAG_subprogram)
    <831>   DW_AT_abstract_origin: <0x69f>	
    <835>   DW_AT_low_pc      : 0x8344	
    <839>   DW_AT_high_pc     : 0x34	
    <83d>   DW_AT_frame_base  : 1 byte block: 9c 	(DW_OP_call_frame_cfa)
    <83f>   DW_AT_GNU_all_call_sites: 1	
    <83f>   DW_AT_sibling     : <0x86f>	
 <2><843>: Abbrev Number: 22 (DW_TAG_formal_parameter)
    <844>   DW_AT_abstract_origin: <0x6ab>	
    <848>   DW_AT_location    : 0x243	(location list)
 <2><84c>: Abbrev Number: 22 (DW_TAG_formal_parameter)
    <84d>   DW_AT_abstract_origin: <0x6b6>	
    <851>   DW_AT_location    : 0x264	(location list)
 <2><855>: Abbrev Number: 26 (DW_TAG_formal_parameter)
    <856>   DW_AT_abstract_origin: <0x6c1>	
    <85a>   DW_AT_location    : 1 byte block: 52 	(DW_OP_reg2 (r2))
 <2><85c>: Abbrev Number: 24 (DW_TAG_variable)
    <85d>   DW_AT_abstract_origin: <0x6cc>	
    <861>   DW_AT_location    : 0x285	(location list)
 <2><865>: Abbrev Number: 24 (DW_TAG_variable)
    <866>   DW_AT_abstract_origin: <0x6d7>	
    <86a>   DW_AT_location    : 0x2d8	(location list)
 <2><86e>: Abbrev Number: 0
 <1><86f>: Abbrev Number: 27 (DW_TAG_subprogram)
    <870>   DW_AT_external    : 1	
    <870>   DW_AT_name        : (indirect string, offset: 0x27b): drawCharacter	
    <874>   DW_AT_decl_file   : 1	
    <875>   DW_AT_decl_line   : 78	
    <876>   DW_AT_prototyped  : 1	
    <876>   DW_AT_type        : <0x55b>	
    <87a>   DW_AT_low_pc      : 0x8378	
    <87e>   DW_AT_high_pc     : 0xb4	
    <882>   DW_AT_frame_base  : 1 byte block: 9c 	(DW_OP_call_frame_cfa)
    <884>   DW_AT_GNU_all_call_sites: 1	
    <884>   DW_AT_sibling     : <0x921>	
 <2><888>: Abbrev Number: 28 (DW_TAG_formal_parameter)
    <889>   DW_AT_name        : (indirect string, offset: 0x538): Char	
    <88d>   DW_AT_decl_file   : 1	
    <88e>   DW_AT_decl_line   : 78	
    <88f>   DW_AT_type        : <0x566>	
    <893>   DW_AT_location    : 0x322	(location list)
 <2><897>: Abbrev Number: 29 (DW_TAG_formal_parameter)
    <898>   DW_AT_name        : x	
    <89a>   DW_AT_decl_file   : 1	
    <89b>   DW_AT_decl_line   : 78	
    <89c>   DW_AT_type        : <0x587>	
    <8a0>   DW_AT_location    : 1 byte block: 51 	(DW_OP_reg1 (r1))
 <2><8a2>: Abbrev Number: 29 (DW_TAG_formal_parameter)
    <8a3>   DW_AT_name        : y	
    <8a5>   DW_AT_decl_file   : 1	
    <8a6>   DW_AT_decl_line   : 78	
    <8a7>   DW_AT_type        : <0x587>	
    <8ab>   DW_AT_location    : 1 byte block: 52 	(DW_OP_reg2 (r2))
 <2><8ad>: Abbrev Number: 18 (DW_TAG_variable)
    <8ae>   DW_AT_name        : bit	
    <8b2>   DW_AT_decl_file   : 1	
    <8b3>   DW_AT_decl_line   : 80	
    <8b4>   DW_AT_type        : <0x566>	
    <8b8>   DW_AT_location    : 0x357	(location list)
 <2><8bc>: Abbrev Number: 30 (DW_TAG_variable)
    <8bd>   DW_AT_name        : (indirect string, offset: 0x207): readedBits	
    <8c1>   DW_AT_decl_file   : 1	
    <8c2>   DW_AT_decl_line   : 81	
    <8c3>   DW_AT_type        : <0x566>	
    <8c7>   DW_AT_location    : 0x383	(location list)
 <2><8cb>: Abbrev Number: 18 (DW_TAG_variable)
    <8cc>   DW_AT_name        : row	
    <8d0>   DW_AT_decl_file   : 1	
    <8d1>   DW_AT_decl_line   : 82	
    <8d2>   DW_AT_type        : <0x566>	
    <8d6>   DW_AT_location    : 0x3a5	(location list)
 <2><8da>: Abbrev Number: 30 (DW_TAG_variable)
    <8db>   DW_AT_name        : (indirect string, offset: 0x2cb): currentCharAddress	
    <8df>   DW_AT_decl_file   : 1	
    <8e0>   DW_AT_decl_line   : 83	
    <8e1>   DW_AT_type        : <0x921>	
    <8e5>   DW_AT_location    : 0x3dc	(location list)
 <2><8e9>: Abbrev Number: 20 (DW_TAG_inlined_subroutine)
    <8ea>   DW_AT_abstract_origin: <0x69f>	
    <8ee>   DW_AT_entry_pc    : 0x8394	
    <8f2>   DW_AT_ranges      : 0x28	
    <8f6>   DW_AT_call_file   : 1	
    <8f7>   DW_AT_call_line   : 97	
 <3><8f8>: Abbrev Number: 22 (DW_TAG_formal_parameter)
    <8f9>   DW_AT_abstract_origin: <0x6c1>	
    <8fd>   DW_AT_location    : 0x3ef	(location list)
 <3><901>: Abbrev Number: 21 (DW_TAG_formal_parameter)
    <902>   DW_AT_abstract_origin: <0x6b6>	
 <3><906>: Abbrev Number: 22 (DW_TAG_formal_parameter)
    <907>   DW_AT_abstract_origin: <0x6ab>	
    <90b>   DW_AT_location    : 0x405	(location list)
 <3><90f>: Abbrev Number: 23 (DW_TAG_lexical_block)
    <910>   DW_AT_ranges      : 0x28	
 <4><914>: Abbrev Number: 31 (DW_TAG_variable)
    <915>   DW_AT_abstract_origin: <0x6cc>	
 <4><919>: Abbrev Number: 31 (DW_TAG_variable)
    <91a>   DW_AT_abstract_origin: <0x6d7>	
 <4><91e>: Abbrev Number: 0
 <3><91f>: Abbrev Number: 0
 <2><920>: Abbrev Number: 0
 <1><921>: Abbrev Number: 13 (DW_TAG_pointer_type)
    <922>   DW_AT_byte_size   : 4	
    <923>   DW_AT_type        : <0x566>	
 <1><927>: Abbrev Number: 27 (DW_TAG_subprogram)
    <928>   DW_AT_external    : 1	
    <928>   DW_AT_name        : (indirect string, offset: 0x254): drawString	
    <92c>   DW_AT_decl_file   : 1	
    <92d>   DW_AT_decl_line   : 106	
    <92e>   DW_AT_prototyped  : 1	
    <92e>   DW_AT_type        : <0x55b>	
    <932>   DW_AT_low_pc      : 0x842c	
    <936>   DW_AT_high_pc     : 0x98	
    <93a>   DW_AT_frame_base  : 1 byte block: 9c 	(DW_OP_call_frame_cfa)
    <93c>   DW_AT_GNU_all_call_sites: 1	
    <93c>   DW_AT_sibling     : <0x9a9>	
 <2><940>: Abbrev Number: 28 (DW_TAG_formal_parameter)
    <941>   DW_AT_name        : (indirect string, offset: 0x24d): string	
    <945>   DW_AT_decl_file   : 1	
    <946>   DW_AT_decl_line   : 106	
    <947>   DW_AT_type        : <0x921>	
    <94b>   DW_AT_location    : 0x425	(location list)
 <2><94f>: Abbrev Number: 28 (DW_TAG_formal_parameter)
    <950>   DW_AT_name        : (indirect string, offset: 0x2ec): length	
    <954>   DW_AT_decl_file   : 1	
    <955>   DW_AT_decl_line   : 106	
    <956>   DW_AT_type        : <0x587>	
    <95a>   DW_AT_location    : 0x443	(location list)
 <2><95e>: Abbrev Number: 19 (DW_TAG_formal_parameter)
    <95f>   DW_AT_name        : x	
    <961>   DW_AT_decl_file   : 1	
    <962>   DW_AT_decl_line   : 106	
    <963>   DW_AT_type        : <0x587>	
    <967>   DW_AT_location    : 0x47c	(location list)
 <2><96b>: Abbrev Number: 19 (DW_TAG_formal_parameter)
    <96c>   DW_AT_name        : y	
    <96e>   DW_AT_decl_file   : 1	
    <96f>   DW_AT_decl_line   : 106	
    <970>   DW_AT_type        : <0x587>	
    <974>   DW_AT_location    : 0x4bb	(location list)
 <2><978>: Abbrev Number: 18 (DW_TAG_variable)
    <979>   DW_AT_name        : x0	
    <97c>   DW_AT_decl_file   : 1	
    <97d>   DW_AT_decl_line   : 108	
    <97e>   DW_AT_type        : <0x587>	
    <982>   DW_AT_location    : 0x4e4	(location list)
 <2><986>: Abbrev Number: 11 (DW_TAG_variable)
    <987>   DW_AT_name        : x1	
    <98a>   DW_AT_decl_file   : 1	
    <98b>   DW_AT_decl_line   : 109	
    <98c>   DW_AT_type        : <0x587>	
 <2><990>: Abbrev Number: 30 (DW_TAG_variable)
    <991>   DW_AT_name        : (indirect string, offset: 0x29f): nextChar	
    <995>   DW_AT_decl_file   : 1	
    <996>   DW_AT_decl_line   : 110	
    <997>   DW_AT_type        : <0x566>	
    <99b>   DW_AT_location    : 0x50d	(location list)
 <2><99f>: Abbrev Number: 32 (DW_TAG_GNU_call_site)
    <9a0>   DW_AT_low_pc      : 0x8498	
    <9a4>   DW_AT_abstract_origin: <0x86f>	
 <2><9a8>: Abbrev Number: 0
 <1><9a9>: Abbrev Number: 12 (DW_TAG_variable)
    <9aa>   DW_AT_name        : (indirect string, offset: 0x322): FrameBufferDescrp	
    <9ae>   DW_AT_decl_file   : 1	
    <9af>   DW_AT_decl_line   : 6	
    <9b0>   DW_AT_type        : <0x9b4>	
 <1><9b4>: Abbrev Number: 33 (DW_TAG_const_type)
    <9b5>   DW_AT_type        : <0x6fe>	
 <1><9b9>: Abbrev Number: 34 (DW_TAG_variable)
    <9ba>   DW_AT_name        : (indirect string, offset: 0x3c5): rpiGpuMailbox	
    <9be>   DW_AT_decl_file   : 1	
    <9bf>   DW_AT_decl_line   : 7	
    <9c0>   DW_AT_type        : <0x9c8>	
    <9c4>   DW_AT_const_value : 0x2000b880	
 <1><9c8>: Abbrev Number: 13 (DW_TAG_pointer_type)
    <9c9>   DW_AT_byte_size   : 4	
    <9ca>   DW_AT_type        : <0x694>	
 <1><9ce>: Abbrev Number: 12 (DW_TAG_variable)
    <9cf>   DW_AT_name        : (indirect string, offset: 0x2fb): fontInfoAddress	
    <9d3>   DW_AT_decl_file   : 1	
    <9d4>   DW_AT_decl_line   : 8	
    <9d5>   DW_AT_type        : <0x9d9>	
 <1><9d9>: Abbrev Number: 33 (DW_TAG_const_type)
    <9da>   DW_AT_type        : <0x921>	
 <1><9de>: Abbrev Number: 35 (DW_TAG_variable)
    <9df>   DW_AT_name        : (indirect string, offset: 0x23d): FrameBufferInfo	
    <9e3>   DW_AT_decl_file   : 1	
    <9e4>   DW_AT_decl_line   : 3	
    <9e5>   DW_AT_type        : <0x54d>	
    <9e9>   DW_AT_external    : 1	
    <9e9>   DW_AT_declaration : 1	
 <1><9e9>: Abbrev Number: 35 (DW_TAG_variable)
    <9ea>   DW_AT_name        : (indirect string, offset: 0x289): SystemDefaultFontInfo	
    <9ee>   DW_AT_decl_file   : 1	
    <9ef>   DW_AT_decl_line   : 4	
    <9f0>   DW_AT_type        : <0x54d>	
    <9f4>   DW_AT_external    : 1	
    <9f4>   DW_AT_declaration : 1	
 <1><9f4>: Abbrev Number: 0
  Compilation Unit @ offset 0x9f5:
   Length:        0x2ae (32-bit)
   Version:       4
   Abbrev Offset: 0x449
   Pointer Size:  4
 <0><a00>: Abbrev Number: 1 (DW_TAG_compile_unit)
    <a01>   DW_AT_producer    : (indirect string, offset: 0x7f): GNU C 4.8.2 -mfpu=vfp -mfloat-abi=hard -march=armv6zk -mtune=arm1176jzf-s -g -O2	
    <a05>   DW_AT_language    : 1	(ANSI C)
    <a06>   DW_AT_name        : (indirect string, offset: 0x40c): source/string.c	
    <a0a>   DW_AT_comp_dir    : (indirect string, offset: 0x132): /home/robert/Desktop/rasp/chapuzas/template2	
    <a0e>   DW_AT_low_pc      : 0x84c4	
    <a12>   DW_AT_high_pc     : 0x228	
    <a16>   DW_AT_stmt_list   : 0x497	
 <1><a1a>: Abbrev Number: 2 (DW_TAG_typedef)
    <a1b>   DW_AT_name        : (indirect string, offset: 0x30b): __int8_t	
    <a1f>   DW_AT_decl_file   : 2	
    <a20>   DW_AT_decl_line   : 27	
    <a21>   DW_AT_type        : <0xa25>	
 <1><a25>: Abbrev Number: 3 (DW_TAG_base_type)
    <a26>   DW_AT_byte_size   : 1	
    <a27>   DW_AT_encoding    : 6	(signed char)
    <a28>   DW_AT_name        : (indirect string, offset: 0x55): signed char	
 <1><a2c>: Abbrev Number: 2 (DW_TAG_typedef)
    <a2d>   DW_AT_name        : (indirect string, offset: 0x2c1): __uint8_t	
    <a31>   DW_AT_decl_file   : 2	
    <a32>   DW_AT_decl_line   : 28	
    <a33>   DW_AT_type        : <0xa37>	
 <1><a37>: Abbrev Number: 3 (DW_TAG_base_type)
    <a38>   DW_AT_byte_size   : 1	
    <a39>   DW_AT_encoding    : 8	(unsigned char)
    <a3a>   DW_AT_name        : (indirect string, offset: 0x53): unsigned char	
 <1><a3e>: Abbrev Number: 3 (DW_TAG_base_type)
    <a3f>   DW_AT_byte_size   : 2	
    <a40>   DW_AT_encoding    : 5	(signed)
    <a41>   DW_AT_name        : (indirect string, offset: 0x121): short int	
 <1><a45>: Abbrev Number: 3 (DW_TAG_base_type)
    <a46>   DW_AT_byte_size   : 2	
    <a47>   DW_AT_encoding    : 7	(unsigned)
    <a48>   DW_AT_name        : (indirect string, offset: 0xdb): short unsigned int	
 <1><a4c>: Abbrev Number: 3 (DW_TAG_base_type)
    <a4d>   DW_AT_byte_size   : 4	
    <a4e>   DW_AT_encoding    : 5	(signed)
    <a4f>   DW_AT_name        : (indirect string, offset: 0x5): long int	
 <1><a53>: Abbrev Number: 2 (DW_TAG_typedef)
    <a54>   DW_AT_name        : (indirect string, offset: 0xd0): __uint32_t	
    <a58>   DW_AT_decl_file   : 2	
    <a59>   DW_AT_decl_line   : 56	
    <a5a>   DW_AT_type        : <0xa5e>	
 <1><a5e>: Abbrev Number: 3 (DW_TAG_base_type)
    <a5f>   DW_AT_byte_size   : 4	
    <a60>   DW_AT_encoding    : 7	(unsigned)
    <a61>   DW_AT_name        : (indirect string, offset: 0x37): long unsigned int	
 <1><a65>: Abbrev Number: 3 (DW_TAG_base_type)
    <a66>   DW_AT_byte_size   : 8	
    <a67>   DW_AT_encoding    : 5	(signed)
    <a68>   DW_AT_name        : (indirect string, offset: 0x0): long long int	
 <1><a6c>: Abbrev Number: 3 (DW_TAG_base_type)
    <a6d>   DW_AT_byte_size   : 8	
    <a6e>   DW_AT_encoding    : 7	(unsigned)
    <a6f>   DW_AT_name        : (indirect string, offset: 0x32): long long unsigned int	
 <1><a73>: Abbrev Number: 4 (DW_TAG_base_type)
    <a74>   DW_AT_byte_size   : 4	
    <a75>   DW_AT_encoding    : 5	(signed)
    <a76>   DW_AT_name        : int	
 <1><a7a>: Abbrev Number: 3 (DW_TAG_base_type)
    <a7b>   DW_AT_byte_size   : 4	
    <a7c>   DW_AT_encoding    : 7	(unsigned)
    <a7d>   DW_AT_name        : (indirect string, offset: 0x3c): unsigned int	
 <1><a81>: Abbrev Number: 2 (DW_TAG_typedef)
    <a82>   DW_AT_name        : (indirect string, offset: 0x30d): int8_t	
    <a86>   DW_AT_decl_file   : 3	
    <a87>   DW_AT_decl_line   : 41	
    <a88>   DW_AT_type        : <0xa1a>	
 <1><a8c>: Abbrev Number: 2 (DW_TAG_typedef)
    <a8d>   DW_AT_name        : (indirect string, offset: 0x2c3): uint8_t	
    <a91>   DW_AT_decl_file   : 3	
    <a92>   DW_AT_decl_line   : 42	
    <a93>   DW_AT_type        : <0xa2c>	
 <1><a97>: Abbrev Number: 2 (DW_TAG_typedef)
    <a98>   DW_AT_name        : (indirect string, offset: 0xd2): uint32_t	
    <a9c>   DW_AT_decl_file   : 3	
    <a9d>   DW_AT_decl_line   : 66	
    <a9e>   DW_AT_type        : <0xa53>	
 <1><aa2>: Abbrev Number: 5 (DW_TAG_subprogram)
    <aa3>   DW_AT_external    : 1	
    <aa3>   DW_AT_name        : (indirect string, offset: 0x3ff): stringLength	
    <aa7>   DW_AT_decl_file   : 1	
    <aa8>   DW_AT_decl_line   : 65	
    <aa9>   DW_AT_prototyped  : 1	
    <aa9>   DW_AT_type        : <0xa8c>	
    <aad>   DW_AT_inline      : 1	(inlined)
    <aae>   DW_AT_sibling     : <0xac9>	
 <2><ab2>: Abbrev Number: 6 (DW_TAG_formal_parameter)
    <ab3>   DW_AT_name        : str	
    <ab7>   DW_AT_decl_file   : 1	
    <ab8>   DW_AT_decl_line   : 65	
    <ab9>   DW_AT_type        : <0xac9>	
 <2><abd>: Abbrev Number: 7 (DW_TAG_variable)
    <abe>   DW_AT_name        : (indirect string, offset: 0x460): cont	
    <ac2>   DW_AT_decl_file   : 1	
    <ac3>   DW_AT_decl_line   : 67	
    <ac4>   DW_AT_type        : <0xa8c>	
 <2><ac8>: Abbrev Number: 0
 <1><ac9>: Abbrev Number: 8 (DW_TAG_pointer_type)
    <aca>   DW_AT_byte_size   : 4	
    <acb>   DW_AT_type        : <0xa8c>	
 <1><acf>: Abbrev Number: 9 (DW_TAG_subprogram)
    <ad0>   DW_AT_external    : 1	
    <ad0>   DW_AT_name        : (indirect string, offset: 0x3eb): uintToString	
    <ad4>   DW_AT_decl_file   : 1	
    <ad5>   DW_AT_decl_line   : 5	
    <ad6>   DW_AT_prototyped  : 1	
    <ad6>   DW_AT_type        : <0xa81>	
    <ada>   DW_AT_low_pc      : 0x84c4	
    <ade>   DW_AT_high_pc     : 0x120	
    <ae2>   DW_AT_frame_base  : 1 byte block: 9c 	(DW_OP_call_frame_cfa)
    <ae4>   DW_AT_GNU_all_tail_call_sites: 1	
    <ae4>   DW_AT_sibling     : <0xb69>	
 <2><ae8>: Abbrev Number: 10 (DW_TAG_formal_parameter)
    <ae9>   DW_AT_name        : num	
    <aed>   DW_AT_decl_file   : 1	
    <aee>   DW_AT_decl_line   : 5	
    <aef>   DW_AT_type        : <0xa97>	
    <af3>   DW_AT_location    : 0x550	(location list)
 <2><af7>: Abbrev Number: 11 (DW_TAG_formal_parameter)
    <af8>   DW_AT_name        : (indirect string, offset: 0x42e): base	
    <afc>   DW_AT_decl_file   : 1	
    <afd>   DW_AT_decl_line   : 5	
    <afe>   DW_AT_type        : <0xa8c>	
    <b02>   DW_AT_location    : 0x5c6	(location list)
 <2><b06>: Abbrev Number: 10 (DW_TAG_formal_parameter)
    <b07>   DW_AT_name        : str	
    <b0b>   DW_AT_decl_file   : 1	
    <b0c>   DW_AT_decl_line   : 5	
    <b0d>   DW_AT_type        : <0xac9>	
    <b11>   DW_AT_location    : 0x5f2	(location list)
 <2><b15>: Abbrev Number: 12 (DW_TAG_variable)
    <b16>   DW_AT_name        : (indirect string, offset: 0x43c): divCont	
    <b1a>   DW_AT_decl_file   : 1	
    <b1b>   DW_AT_decl_line   : 7	
    <b1c>   DW_AT_type        : <0xa8c>	
    <b20>   DW_AT_location    : 0x61b	(location list)
 <2><b24>: Abbrev Number: 12 (DW_TAG_variable)
    <b25>   DW_AT_name        : (indirect string, offset: 0x3e2): reminder	
    <b29>   DW_AT_decl_file   : 1	
    <b2a>   DW_AT_decl_line   : 8	
    <b2b>   DW_AT_type        : <0xa8c>	
    <b2f>   DW_AT_location    : 0x698	(location list)
 <2><b33>: Abbrev Number: 13 (DW_TAG_variable)
    <b34>   DW_AT_name        : i	
    <b36>   DW_AT_decl_file   : 1	
    <b37>   DW_AT_decl_line   : 9	
    <b38>   DW_AT_type        : <0xa8c>	
    <b3c>   DW_AT_location    : 0x6f4	(location list)
 <2><b40>: Abbrev Number: 14 (DW_TAG_inlined_subroutine)
    <b41>   DW_AT_abstract_origin: <0xaa2>	
    <b45>   DW_AT_low_pc      : 0x84dc	
    <b49>   DW_AT_high_pc     : 0x24	
    <b4d>   DW_AT_call_file   : 1	
    <b4e>   DW_AT_call_line   : 14	
 <3><b4f>: Abbrev Number: 15 (DW_TAG_formal_parameter)
    <b50>   DW_AT_abstract_origin: <0xab2>	
 <3><b54>: Abbrev Number: 16 (DW_TAG_lexical_block)
    <b55>   DW_AT_low_pc      : 0x84dc	
    <b59>   DW_AT_high_pc     : 0x24	
 <4><b5d>: Abbrev Number: 17 (DW_TAG_variable)
    <b5e>   DW_AT_abstract_origin: <0xabd>	
    <b62>   DW_AT_location    : 0x71e	(location list)
 <4><b66>: Abbrev Number: 0
 <3><b67>: Abbrev Number: 0
 <2><b68>: Abbrev Number: 0
 <1><b69>: Abbrev Number: 18 (DW_TAG_subprogram)
    <b6a>   DW_AT_abstract_origin: <0xaa2>	
    <b6e>   DW_AT_low_pc      : 0x85e4	
    <b72>   DW_AT_high_pc     : 0x2c	
    <b76>   DW_AT_frame_base  : 1 byte block: 9c 	(DW_OP_call_frame_cfa)
    <b78>   DW_AT_GNU_all_call_sites: 1	
    <b78>   DW_AT_sibling     : <0xb8f>	
 <2><b7c>: Abbrev Number: 19 (DW_TAG_formal_parameter)
    <b7d>   DW_AT_abstract_origin: <0xab2>	
    <b81>   DW_AT_location    : 0x760	(location list)
 <2><b85>: Abbrev Number: 17 (DW_TAG_variable)
    <b86>   DW_AT_abstract_origin: <0xabd>	
    <b8a>   DW_AT_location    : 0x77e	(location list)
 <2><b8e>: Abbrev Number: 0
 <1><b8f>: Abbrev Number: 20 (DW_TAG_subprogram)
    <b90>   DW_AT_external    : 1	
    <b90>   DW_AT_name        : (indirect string, offset: 0x44c): searchStringPattern	
    <b94>   DW_AT_decl_file   : 1	
    <b95>   DW_AT_decl_line   : 75	
    <b96>   DW_AT_prototyped  : 1	
    <b96>   DW_AT_type        : <0xa97>	
    <b9a>   DW_AT_low_pc      : 0x8610	
    <b9e>   DW_AT_high_pc     : 0x84	
    <ba2>   DW_AT_frame_base  : 1 byte block: 9c 	(DW_OP_call_frame_cfa)
    <ba4>   DW_AT_GNU_all_call_sites: 1	
    <ba4>   DW_AT_sibling     : <0xbe3>	
 <2><ba8>: Abbrev Number: 11 (DW_TAG_formal_parameter)
    <ba9>   DW_AT_name        : (indirect string, offset: 0x444): pattern	
    <bad>   DW_AT_decl_file   : 1	
    <bae>   DW_AT_decl_line   : 75	
    <baf>   DW_AT_type        : <0xac9>	
    <bb3>   DW_AT_location    : 0x7b5	(location list)
 <2><bb7>: Abbrev Number: 10 (DW_TAG_formal_parameter)
    <bb8>   DW_AT_name        : str	
    <bbc>   DW_AT_decl_file   : 1	
    <bbd>   DW_AT_decl_line   : 75	
    <bbe>   DW_AT_type        : <0xbe3>	
    <bc2>   DW_AT_location    : 0x7fa	(location list)
 <2><bc6>: Abbrev Number: 13 (DW_TAG_variable)
    <bc7>   DW_AT_name        : i	
    <bc9>   DW_AT_decl_file   : 1	
    <bca>   DW_AT_decl_line   : 78	
    <bcb>   DW_AT_type        : <0xa97>	
    <bcf>   DW_AT_location    : 0x83f	(location list)
 <2><bd3>: Abbrev Number: 12 (DW_TAG_variable)
    <bd4>   DW_AT_name        : (indirect string, offset: 0x465): equals	
    <bd8>   DW_AT_decl_file   : 1	
    <bd9>   DW_AT_decl_line   : 79	
    <bda>   DW_AT_type        : <0xa97>	
    <bde>   DW_AT_location    : 0x876	(location list)
 <2><be2>: Abbrev Number: 0
 <1><be3>: Abbrev Number: 8 (DW_TAG_pointer_type)
    <be4>   DW_AT_byte_size   : 4	
    <be5>   DW_AT_type        : <0xbe9>	
 <1><be9>: Abbrev Number: 21 (DW_TAG_const_type)
    <bea>   DW_AT_type        : <0xa8c>	
 <1><bee>: Abbrev Number: 20 (DW_TAG_subprogram)
    <bef>   DW_AT_external    : 1	
    <bef>   DW_AT_name        : (indirect string, offset: 0x3f8): strcpy	
    <bf3>   DW_AT_decl_file   : 1	
    <bf4>   DW_AT_decl_line   : 94	
    <bf5>   DW_AT_prototyped  : 1	
    <bf5>   DW_AT_type        : <0xac9>	
    <bf9>   DW_AT_low_pc      : 0x8694	
    <bfd>   DW_AT_high_pc     : 0x18	
    <c01>   DW_AT_frame_base  : 1 byte block: 9c 	(DW_OP_call_frame_cfa)
    <c03>   DW_AT_GNU_all_call_sites: 1	
    <c03>   DW_AT_sibling     : <0xc33>	
 <2><c07>: Abbrev Number: 11 (DW_TAG_formal_parameter)
    <c08>   DW_AT_name        : (indirect string, offset: 0x429): dest	
    <c0c>   DW_AT_decl_file   : 1	
    <c0d>   DW_AT_decl_line   : 94	
    <c0e>   DW_AT_type        : <0xac9>	
    <c12>   DW_AT_location    : 0x8ad	(location list)
 <2><c16>: Abbrev Number: 10 (DW_TAG_formal_parameter)
    <c17>   DW_AT_name        : src	
    <c1b>   DW_AT_decl_file   : 1	
    <c1c>   DW_AT_decl_line   : 94	
    <c1d>   DW_AT_type        : <0xbe3>	
    <c21>   DW_AT_location    : 0x8d8	(location list)
 <2><c25>: Abbrev Number: 22 (DW_TAG_variable)
    <c26>   DW_AT_name        : (indirect string, offset: 0x424): save	
    <c2a>   DW_AT_decl_file   : 1	
    <c2b>   DW_AT_decl_line   : 96	
    <c2c>   DW_AT_type        : <0xc33>	
    <c30>   DW_AT_location    : 1 byte block: 50 	(DW_OP_reg0 (r0))
 <2><c32>: Abbrev Number: 0
 <1><c33>: Abbrev Number: 8 (DW_TAG_pointer_type)
    <c34>   DW_AT_byte_size   : 4	
    <c35>   DW_AT_type        : <0xc39>	
 <1><c39>: Abbrev Number: 3 (DW_TAG_base_type)
    <c3a>   DW_AT_byte_size   : 1	
    <c3b>   DW_AT_encoding    : 8	(unsigned char)
    <c3c>   DW_AT_name        : (indirect string, offset: 0x5c): char	
 <1><c40>: Abbrev Number: 20 (DW_TAG_subprogram)
    <c41>   DW_AT_external    : 1	
    <c41>   DW_AT_name        : (indirect string, offset: 0x41c): strncpy	
    <c45>   DW_AT_decl_file   : 1	
    <c46>   DW_AT_decl_line   : 101	
    <c47>   DW_AT_prototyped  : 1	
    <c47>   DW_AT_type        : <0xac9>	
    <c4b>   DW_AT_low_pc      : 0x86ac	
    <c4f>   DW_AT_high_pc     : 0x40	
    <c53>   DW_AT_frame_base  : 1 byte block: 9c 	(DW_OP_call_frame_cfa)
    <c55>   DW_AT_GNU_all_call_sites: 1	
    <c55>   DW_AT_sibling     : <0xca1>	
 <2><c59>: Abbrev Number: 11 (DW_TAG_formal_parameter)
    <c5a>   DW_AT_name        : (indirect string, offset: 0x429): dest	
    <c5e>   DW_AT_decl_file   : 1	
    <c5f>   DW_AT_decl_line   : 101	
    <c60>   DW_AT_type        : <0xac9>	
    <c64>   DW_AT_location    : 0x903	(location list)
 <2><c68>: Abbrev Number: 10 (DW_TAG_formal_parameter)
    <c69>   DW_AT_name        : src	
    <c6d>   DW_AT_decl_file   : 1	
    <c6e>   DW_AT_decl_line   : 101	
    <c6f>   DW_AT_type        : <0xbe3>	
    <c73>   DW_AT_location    : 0x923	(location list)
 <2><c77>: Abbrev Number: 11 (DW_TAG_formal_parameter)
    <c78>   DW_AT_name        : (indirect string, offset: 0x433): numChars	
    <c7c>   DW_AT_decl_file   : 1	
    <c7d>   DW_AT_decl_line   : 101	
    <c7e>   DW_AT_type        : <0xca1>	
    <c82>   DW_AT_location    : 0x95d	(location list)
 <2><c86>: Abbrev Number: 22 (DW_TAG_variable)
    <c87>   DW_AT_name        : (indirect string, offset: 0x424): save	
    <c8b>   DW_AT_decl_file   : 1	
    <c8c>   DW_AT_decl_line   : 103	
    <c8d>   DW_AT_type        : <0xac9>	
    <c91>   DW_AT_location    : 1 byte block: 50 	(DW_OP_reg0 (r0))
 <2><c93>: Abbrev Number: 13 (DW_TAG_variable)
    <c94>   DW_AT_name        : i	
    <c96>   DW_AT_decl_file   : 1	
    <c97>   DW_AT_decl_line   : 104	
    <c98>   DW_AT_type        : <0xa97>	
    <c9c>   DW_AT_location    : 0x97e	(location list)
 <2><ca0>: Abbrev Number: 0
 <1><ca1>: Abbrev Number: 21 (DW_TAG_const_type)
    <ca2>   DW_AT_type        : <0xa97>	
 <1><ca6>: Abbrev Number: 0
  Compilation Unit @ offset 0xca7:
   Length:        0xa62 (32-bit)
   Version:       4
   Abbrev Offset: 0x585
   Pointer Size:  4
 <0><cb2>: Abbrev Number: 1 (DW_TAG_compile_unit)
    <cb3>   DW_AT_producer    : (indirect string, offset: 0x7f): GNU C 4.8.2 -mfpu=vfp -mfloat-abi=hard -march=armv6zk -mtune=arm1176jzf-s -g -O2	
    <cb7>   DW_AT_language    : 1	(ANSI C)
    <cb8>   DW_AT_name        : (indirect string, offset: 0x4c7): source/screenbackground.c	
    <cbc>   DW_AT_comp_dir    : (indirect string, offset: 0x132): /home/robert/Desktop/rasp/chapuzas/template2	
    <cc0>   DW_AT_low_pc      : 0x86ec	
    <cc4>   DW_AT_high_pc     : 0x920	
    <cc8>   DW_AT_stmt_list   : 0x5ce	
 <1><ccc>: Abbrev Number: 2 (DW_TAG_typedef)
    <ccd>   DW_AT_name        : (indirect string, offset: 0x30b): __int8_t	
    <cd1>   DW_AT_decl_file   : 2	
    <cd2>   DW_AT_decl_line   : 27	
    <cd3>   DW_AT_type        : <0xcd7>	
 <1><cd7>: Abbrev Number: 3 (DW_TAG_base_type)
    <cd8>   DW_AT_byte_size   : 1	
    <cd9>   DW_AT_encoding    : 6	(signed char)
    <cda>   DW_AT_name        : (indirect string, offset: 0x55): signed char	
 <1><cde>: Abbrev Number: 2 (DW_TAG_typedef)
    <cdf>   DW_AT_name        : (indirect string, offset: 0x2c1): __uint8_t	
    <ce3>   DW_AT_decl_file   : 2	
    <ce4>   DW_AT_decl_line   : 28	
    <ce5>   DW_AT_type        : <0xce9>	
 <1><ce9>: Abbrev Number: 3 (DW_TAG_base_type)
    <cea>   DW_AT_byte_size   : 1	
    <ceb>   DW_AT_encoding    : 8	(unsigned char)
    <cec>   DW_AT_name        : (indirect string, offset: 0x53): unsigned char	
 <1><cf0>: Abbrev Number: 3 (DW_TAG_base_type)
    <cf1>   DW_AT_byte_size   : 2	
    <cf2>   DW_AT_encoding    : 5	(signed)
    <cf3>   DW_AT_name        : (indirect string, offset: 0x121): short int	
 <1><cf7>: Abbrev Number: 2 (DW_TAG_typedef)
    <cf8>   DW_AT_name        : (indirect string, offset: 0x25f): __uint16_t	
    <cfc>   DW_AT_decl_file   : 2	
    <cfd>   DW_AT_decl_line   : 38	
    <cfe>   DW_AT_type        : <0xd02>	
 <1><d02>: Abbrev Number: 3 (DW_TAG_base_type)
    <d03>   DW_AT_byte_size   : 2	
    <d04>   DW_AT_encoding    : 7	(unsigned)
    <d05>   DW_AT_name        : (indirect string, offset: 0xdb): short unsigned int	
 <1><d09>: Abbrev Number: 2 (DW_TAG_typedef)
    <d0a>   DW_AT_name        : (indirect string, offset: 0x357): __int32_t	
    <d0e>   DW_AT_decl_file   : 2	
    <d0f>   DW_AT_decl_line   : 55	
    <d10>   DW_AT_type        : <0xd14>	
 <1><d14>: Abbrev Number: 3 (DW_TAG_base_type)
    <d15>   DW_AT_byte_size   : 4	
    <d16>   DW_AT_encoding    : 5	(signed)
    <d17>   DW_AT_name        : (indirect string, offset: 0x5): long int	
 <1><d1b>: Abbrev Number: 2 (DW_TAG_typedef)
    <d1c>   DW_AT_name        : (indirect string, offset: 0xd0): __uint32_t	
    <d20>   DW_AT_decl_file   : 2	
    <d21>   DW_AT_decl_line   : 56	
    <d22>   DW_AT_type        : <0xd26>	
 <1><d26>: Abbrev Number: 3 (DW_TAG_base_type)
    <d27>   DW_AT_byte_size   : 4	
    <d28>   DW_AT_encoding    : 7	(unsigned)
    <d29>   DW_AT_name        : (indirect string, offset: 0x37): long unsigned int	
 <1><d2d>: Abbrev Number: 3 (DW_TAG_base_type)
    <d2e>   DW_AT_byte_size   : 8	
    <d2f>   DW_AT_encoding    : 5	(signed)
    <d30>   DW_AT_name        : (indirect string, offset: 0x0): long long int	
 <1><d34>: Abbrev Number: 3 (DW_TAG_base_type)
    <d35>   DW_AT_byte_size   : 8	
    <d36>   DW_AT_encoding    : 7	(unsigned)
    <d37>   DW_AT_name        : (indirect string, offset: 0x32): long long unsigned int	
 <1><d3b>: Abbrev Number: 4 (DW_TAG_base_type)
    <d3c>   DW_AT_byte_size   : 4	
    <d3d>   DW_AT_encoding    : 5	(signed)
    <d3e>   DW_AT_name        : int	
 <1><d42>: Abbrev Number: 3 (DW_TAG_base_type)
    <d43>   DW_AT_byte_size   : 4	
    <d44>   DW_AT_encoding    : 7	(unsigned)
    <d45>   DW_AT_name        : (indirect string, offset: 0x3c): unsigned int	
 <1><d49>: Abbrev Number: 2 (DW_TAG_typedef)
    <d4a>   DW_AT_name        : (indirect string, offset: 0x30d): int8_t	
    <d4e>   DW_AT_decl_file   : 3	
    <d4f>   DW_AT_decl_line   : 41	
    <d50>   DW_AT_type        : <0xccc>	
 <1><d54>: Abbrev Number: 2 (DW_TAG_typedef)
    <d55>   DW_AT_name        : (indirect string, offset: 0x2c3): uint8_t	
    <d59>   DW_AT_decl_file   : 3	
    <d5a>   DW_AT_decl_line   : 42	
    <d5b>   DW_AT_type        : <0xcde>	
 <1><d5f>: Abbrev Number: 2 (DW_TAG_typedef)
    <d60>   DW_AT_name        : (indirect string, offset: 0x261): uint16_t	
    <d64>   DW_AT_decl_file   : 3	
    <d65>   DW_AT_decl_line   : 54	
    <d66>   DW_AT_type        : <0xcf7>	
 <1><d6a>: Abbrev Number: 2 (DW_TAG_typedef)
    <d6b>   DW_AT_name        : (indirect string, offset: 0x359): int32_t	
    <d6f>   DW_AT_decl_file   : 3	
    <d70>   DW_AT_decl_line   : 65	
    <d71>   DW_AT_type        : <0xd09>	
 <1><d75>: Abbrev Number: 2 (DW_TAG_typedef)
    <d76>   DW_AT_name        : (indirect string, offset: 0xd2): uint32_t	
    <d7a>   DW_AT_decl_file   : 3	
    <d7b>   DW_AT_decl_line   : 66	
    <d7c>   DW_AT_type        : <0xd1b>	
 <1><d80>: Abbrev Number: 5 (DW_TAG_volatile_type)
    <d81>   DW_AT_type        : <0xd75>	
 <1><d85>: Abbrev Number: 6 (DW_TAG_structure_type)
    <d86>   DW_AT_name        : (indirect string, offset: 0x556): atag_header	
    <d8a>   DW_AT_byte_size   : 8	
    <d8b>   DW_AT_decl_file   : 4	
    <d8c>   DW_AT_decl_line   : 29	
    <d8d>   DW_AT_sibling     : <0xdaa>	
 <2><d91>: Abbrev Number: 7 (DW_TAG_member)
    <d92>   DW_AT_name        : (indirect string, offset: 0x33a): size	
    <d96>   DW_AT_decl_file   : 4	
    <d97>   DW_AT_decl_line   : 31	
    <d98>   DW_AT_type        : <0xd75>	
    <d9c>   DW_AT_data_member_location: 0	
 <2><d9d>: Abbrev Number: 8 (DW_TAG_member)
    <d9e>   DW_AT_name        : tag	
    <da2>   DW_AT_decl_file   : 4	
    <da3>   DW_AT_decl_line   : 32	
    <da4>   DW_AT_type        : <0xd75>	
    <da8>   DW_AT_data_member_location: 4	
 <2><da9>: Abbrev Number: 0
 <1><daa>: Abbrev Number: 6 (DW_TAG_structure_type)
    <dab>   DW_AT_name        : (indirect string, offset: 0x4ba): atag_cmdline	
    <daf>   DW_AT_byte_size   : 12	
    <db0>   DW_AT_decl_file   : 4	
    <db1>   DW_AT_decl_line   : 115	
    <db2>   DW_AT_sibling     : <0xdcf>	
 <2><db6>: Abbrev Number: 7 (DW_TAG_member)
    <db7>   DW_AT_name        : (indirect string, offset: 0x55b): header	
    <dbb>   DW_AT_decl_file   : 4	
    <dbc>   DW_AT_decl_line   : 117	
    <dbd>   DW_AT_type        : <0xd85>	
    <dc1>   DW_AT_data_member_location: 0	
 <2><dc2>: Abbrev Number: 7 (DW_TAG_member)
    <dc3>   DW_AT_name        : (indirect string, offset: 0x4bf): cmdline	
    <dc7>   DW_AT_decl_file   : 4	
    <dc8>   DW_AT_decl_line   : 118	
    <dc9>   DW_AT_type        : <0xdcf>	
    <dcd>   DW_AT_data_member_location: 8	
 <2><dce>: Abbrev Number: 0
 <1><dcf>: Abbrev Number: 3 (DW_TAG_base_type)
    <dd0>   DW_AT_byte_size   : 1	
    <dd1>   DW_AT_encoding    : 8	(unsigned char)
    <dd2>   DW_AT_name        : (indirect string, offset: 0x5c): char	
 <1><dd6>: Abbrev Number: 9 (DW_TAG_structure_type)
    <dd7>   DW_AT_byte_size   : 40	
    <dd8>   DW_AT_decl_file   : 5	
    <dd9>   DW_AT_decl_line   : 34	
    <dda>   DW_AT_sibling     : <0xe53>	
 <2><dde>: Abbrev Number: 7 (DW_TAG_member)
    <ddf>   DW_AT_name        : (indirect string, offset: 0x231): pWidth	
    <de3>   DW_AT_decl_file   : 5	
    <de4>   DW_AT_decl_line   : 36	
    <de5>   DW_AT_type        : <0xd80>	
    <de9>   DW_AT_data_member_location: 0	
 <2><dea>: Abbrev Number: 7 (DW_TAG_member)
    <deb>   DW_AT_name        : (indirect string, offset: 0x31a): pHeight	
    <def>   DW_AT_decl_file   : 5	
    <df0>   DW_AT_decl_line   : 37	
    <df1>   DW_AT_type        : <0xd80>	
    <df5>   DW_AT_data_member_location: 4	
 <2><df6>: Abbrev Number: 7 (DW_TAG_member)
    <df7>   DW_AT_name        : (indirect string, offset: 0x22a): vWidth	
    <dfb>   DW_AT_decl_file   : 5	
    <dfc>   DW_AT_decl_line   : 38	
    <dfd>   DW_AT_type        : <0xd80>	
    <e01>   DW_AT_data_member_location: 8	
 <2><e02>: Abbrev Number: 7 (DW_TAG_member)
    <e03>   DW_AT_name        : (indirect string, offset: 0x2f3): vHeight	
    <e07>   DW_AT_decl_file   : 5	
    <e08>   DW_AT_decl_line   : 39	
    <e09>   DW_AT_type        : <0xd80>	
    <e0d>   DW_AT_data_member_location: 12	
 <2><e0e>: Abbrev Number: 7 (DW_TAG_member)
    <e0f>   DW_AT_name        : (indirect string, offset: 0x3bf): pitch	
    <e13>   DW_AT_decl_file   : 5	
    <e14>   DW_AT_decl_line   : 40	
    <e15>   DW_AT_type        : <0xd80>	
    <e19>   DW_AT_data_member_location: 16	
 <2><e1a>: Abbrev Number: 7 (DW_TAG_member)
    <e1b>   DW_AT_name        : (indirect string, offset: 0x3d3): cMode	
    <e1f>   DW_AT_decl_file   : 5	
    <e20>   DW_AT_decl_line   : 41	
    <e21>   DW_AT_type        : <0xd80>	
    <e25>   DW_AT_data_member_location: 20	
 <2><e26>: Abbrev Number: 8 (DW_TAG_member)
    <e27>   DW_AT_name        : x	
    <e29>   DW_AT_decl_file   : 5	
    <e2a>   DW_AT_decl_line   : 42	
    <e2b>   DW_AT_type        : <0xd80>	
    <e2f>   DW_AT_data_member_location: 24	
 <2><e30>: Abbrev Number: 8 (DW_TAG_member)
    <e31>   DW_AT_name        : y	
    <e33>   DW_AT_decl_file   : 5	
    <e34>   DW_AT_decl_line   : 43	
    <e35>   DW_AT_type        : <0xd80>	
    <e39>   DW_AT_data_member_location: 28	
 <2><e3a>: Abbrev Number: 7 (DW_TAG_member)
    <e3b>   DW_AT_name        : (indirect string, offset: 0x361): pointer	
    <e3f>   DW_AT_decl_file   : 5	
    <e40>   DW_AT_decl_line   : 44	
    <e41>   DW_AT_type        : <0xd80>	
    <e45>   DW_AT_data_member_location: 32	
 <2><e46>: Abbrev Number: 7 (DW_TAG_member)
    <e47>   DW_AT_name        : (indirect string, offset: 0x33a): size	
    <e4b>   DW_AT_decl_file   : 5	
    <e4c>   DW_AT_decl_line   : 45	
    <e4d>   DW_AT_type        : <0xd80>	
    <e51>   DW_AT_data_member_location: 36	
 <2><e52>: Abbrev Number: 0
 <1><e53>: Abbrev Number: 2 (DW_TAG_typedef)
    <e54>   DW_AT_name        : (indirect string, offset: 0x39e): rpi_gpu_framebuffer_descriptor_t	
    <e58>   DW_AT_decl_file   : 5	
    <e59>   DW_AT_decl_line   : 48	
    <e5a>   DW_AT_type        : <0xdd6>	
 <1><e5e>: Abbrev Number: 10 (DW_TAG_structure_type)
    <e5f>   DW_AT_byte_size   : 256	
    <e61>   DW_AT_decl_file   : 6	
    <e62>   DW_AT_decl_line   : 17	
    <e63>   DW_AT_sibling     : <0xef8>	
 <2><e67>: Abbrev Number: 7 (DW_TAG_member)
    <e68>   DW_AT_name        : (indirect string, offset: 0x487): currentX	
    <e6c>   DW_AT_decl_file   : 6	
    <e6d>   DW_AT_decl_line   : 18	
    <e6e>   DW_AT_type        : <0xd75>	
    <e72>   DW_AT_data_member_location: 0	
 <2><e73>: Abbrev Number: 7 (DW_TAG_member)
    <e74>   DW_AT_name        : (indirect string, offset: 0x490): currentY	
    <e78>   DW_AT_decl_file   : 6	
    <e79>   DW_AT_decl_line   : 19	
    <e7a>   DW_AT_type        : <0xd75>	
    <e7e>   DW_AT_data_member_location: 4	
 <2><e7f>: Abbrev Number: 7 (DW_TAG_member)
    <e80>   DW_AT_name        : (indirect string, offset: 0x515): onTime	
    <e84>   DW_AT_decl_file   : 6	
    <e85>   DW_AT_decl_line   : 20	
    <e86>   DW_AT_type        : <0xef8>	
    <e8a>   DW_AT_data_member_location: 8	
 <2><e8b>: Abbrev Number: 7 (DW_TAG_member)
    <e8c>   DW_AT_name        : (indirect string, offset: 0x51c): board	
    <e90>   DW_AT_decl_file   : 6	
    <e91>   DW_AT_decl_line   : 21	
    <e92>   DW_AT_type        : <0xefe>	
    <e96>   DW_AT_data_member_location: 12	
 <2><e97>: Abbrev Number: 8 (DW_TAG_member)
    <e98>   DW_AT_name        : rev	
    <e9c>   DW_AT_decl_file   : 6	
    <e9d>   DW_AT_decl_line   : 22	
    <e9e>   DW_AT_type        : <0xefe>	
    <ea2>   DW_AT_data_member_location: 52	
 <2><ea3>: Abbrev Number: 7 (DW_TAG_member)
    <ea4>   DW_AT_name        : (indirect string, offset: 0x4fe): serial	
    <ea8>   DW_AT_decl_file   : 6	
    <ea9>   DW_AT_decl_line   : 23	
    <eaa>   DW_AT_type        : <0xefe>	
    <eae>   DW_AT_data_member_location: 92	
 <2><eaf>: Abbrev Number: 8 (DW_TAG_member)
    <eb0>   DW_AT_name        : mac	
    <eb4>   DW_AT_decl_file   : 6	
    <eb5>   DW_AT_decl_line   : 24	
    <eb6>   DW_AT_type        : <0xefe>	
    <eba>   DW_AT_data_member_location: 132	
 <2><ebb>: Abbrev Number: 7 (DW_TAG_member)
    <ebc>   DW_AT_name        : (indirect string, offset: 0x4b2): freqCPU	
    <ec0>   DW_AT_decl_file   : 6	
    <ec1>   DW_AT_decl_line   : 25	
    <ec2>   DW_AT_type        : <0xefe>	
    <ec6>   DW_AT_data_member_location: 172	
 <2><ec7>: Abbrev Number: 7 (DW_TAG_member)
    <ec8>   DW_AT_name        : (indirect string, offset: 0x4f3): resolution	
    <ecc>   DW_AT_decl_file   : 6	
    <ecd>   DW_AT_decl_line   : 26	
    <ece>   DW_AT_type        : <0xefe>	
    <ed2>   DW_AT_data_member_location: 212	
 <2><ed3>: Abbrev Number: 7 (DW_TAG_member)
    <ed4>   DW_AT_name        : (indirect string, offset: 0x4e1): bgColor	
    <ed8>   DW_AT_decl_file   : 6	
    <ed9>   DW_AT_decl_line   : 27	
    <eda>   DW_AT_type        : <0xd5f>	
    <ede>   DW_AT_data_member_location: 252	
 <2><edf>: Abbrev Number: 7 (DW_TAG_member)
    <ee0>   DW_AT_name        : (indirect string, offset: 0x531): workingChar	
    <ee4>   DW_AT_decl_file   : 6	
    <ee5>   DW_AT_decl_line   : 28	
    <ee6>   DW_AT_type        : <0xd54>	
    <eea>   DW_AT_data_member_location: 254	
 <2><eeb>: Abbrev Number: 8 (DW_TAG_member)
    <eec>   DW_AT_name        : bwk	
    <ef0>   DW_AT_decl_file   : 6	
    <ef1>   DW_AT_decl_line   : 29	
    <ef2>   DW_AT_type        : <0xd54>	
    <ef6>   DW_AT_data_member_location: 255	
 <2><ef7>: Abbrev Number: 0
 <1><ef8>: Abbrev Number: 11 (DW_TAG_pointer_type)
    <ef9>   DW_AT_byte_size   : 4	
    <efa>   DW_AT_type        : <0xd75>	
 <1><efe>: Abbrev Number: 12 (DW_TAG_array_type)
    <eff>   DW_AT_type        : <0xd54>	
    <f03>   DW_AT_sibling     : <0xf0e>	
 <2><f07>: Abbrev Number: 13 (DW_TAG_subrange_type)
    <f08>   DW_AT_type        : <0xf0e>	
    <f0c>   DW_AT_upper_bound : 39	
 <2><f0d>: Abbrev Number: 0
 <1><f0e>: Abbrev Number: 3 (DW_TAG_base_type)
    <f0f>   DW_AT_byte_size   : 4	
    <f10>   DW_AT_encoding    : 7	(unsigned)
    <f11>   DW_AT_name        : (indirect string, offset: 0x47e): sizetype	
 <1><f15>: Abbrev Number: 2 (DW_TAG_typedef)
    <f16>   DW_AT_name        : (indirect string, offset: 0x50c): bgInfo_t	
    <f1a>   DW_AT_decl_file   : 6	
    <f1b>   DW_AT_decl_line   : 31	
    <f1c>   DW_AT_type        : <0xe5e>	
 <1><f20>: Abbrev Number: 14 (DW_TAG_subprogram)
    <f21>   DW_AT_external    : 1	
    <f21>   DW_AT_name        : (indirect string, offset: 0xee): bgRefresh	
    <f25>   DW_AT_decl_file   : 1	
    <f26>   DW_AT_decl_line   : 61	
    <f27>   DW_AT_prototyped  : 1	
    <f27>   DW_AT_low_pc      : 0x86ec	
    <f2b>   DW_AT_high_pc     : 0x9c	
    <f2f>   DW_AT_frame_base  : 1 byte block: 9c 	(DW_OP_call_frame_cfa)
    <f31>   DW_AT_GNU_all_call_sites: 1	
    <f31>   DW_AT_sibling     : <0xf6e>	
 <2><f35>: Abbrev Number: 15 (DW_TAG_GNU_call_site)
    <f36>   DW_AT_low_pc      : 0x874c	
    <f3a>   DW_AT_abstract_origin: <0x1690>	
    <f3e>   DW_AT_sibling     : <0xf56>	
 <3><f42>: Abbrev Number: 16 (DW_TAG_GNU_call_site_parameter)
    <f43>   DW_AT_location    : 1 byte block: 52 	(DW_OP_reg2 (r2))
    <f45>   DW_AT_GNU_call_site_value: 2 byte block: 8 38 	(DW_OP_const1u: 56)
 <3><f48>: Abbrev Number: 16 (DW_TAG_GNU_call_site_parameter)
    <f49>   DW_AT_location    : 1 byte block: 51 	(DW_OP_reg1 (r1))
    <f4b>   DW_AT_GNU_call_site_value: 3 byte block: a 38 4 	(DW_OP_const2u: 1080)
 <3><f4f>: Abbrev Number: 16 (DW_TAG_GNU_call_site_parameter)
    <f50>   DW_AT_location    : 1 byte block: 50 	(DW_OP_reg0 (r0))
    <f52>   DW_AT_GNU_call_site_value: 2 byte block: 8 20 	(DW_OP_const1u: 32)
 <3><f55>: Abbrev Number: 0
 <2><f56>: Abbrev Number: 17 (DW_TAG_GNU_call_site)
    <f57>   DW_AT_low_pc      : 0x8760	
    <f5b>   DW_AT_GNU_tail_call: 1	
    <f5b>   DW_AT_abstract_origin: <0x1690>	
 <3><f5f>: Abbrev Number: 16 (DW_TAG_GNU_call_site_parameter)
    <f60>   DW_AT_location    : 1 byte block: 52 	(DW_OP_reg2 (r2))
    <f62>   DW_AT_GNU_call_site_value: 2 byte block: 8 38 	(DW_OP_const1u: 56)
 <3><f65>: Abbrev Number: 16 (DW_TAG_GNU_call_site_parameter)
    <f66>   DW_AT_location    : 1 byte block: 51 	(DW_OP_reg1 (r1))
    <f68>   DW_AT_GNU_call_site_value: 3 byte block: a 38 4 	(DW_OP_const2u: 1080)
 <3><f6c>: Abbrev Number: 0
 <2><f6d>: Abbrev Number: 0
 <1><f6e>: Abbrev Number: 14 (DW_TAG_subprogram)
    <f6f>   DW_AT_external    : 1	
    <f6f>   DW_AT_name        : (indirect string, offset: 0x472): bgDrawEdges	
    <f73>   DW_AT_decl_file   : 1	
    <f74>   DW_AT_decl_line   : 97	
    <f75>   DW_AT_prototyped  : 1	
    <f75>   DW_AT_low_pc      : 0x8788	
    <f79>   DW_AT_high_pc     : 0x2b4	
    <f7d>   DW_AT_frame_base  : 1 byte block: 9c 	(DW_OP_call_frame_cfa)
    <f7f>   DW_AT_GNU_all_call_sites: 1	
    <f7f>   DW_AT_sibling     : <0x10e9>	
 <2><f83>: Abbrev Number: 18 (DW_TAG_formal_parameter)
    <f84>   DW_AT_name        : (indirect string, offset: 0x46c): color	
    <f88>   DW_AT_decl_file   : 1	
    <f89>   DW_AT_decl_line   : 97	
    <f8a>   DW_AT_type        : <0xd5f>	
    <f8e>   DW_AT_location    : 0x9b8	(location list)
 <2><f92>: Abbrev Number: 19 (DW_TAG_variable)
    <f93>   DW_AT_name        : i	
    <f95>   DW_AT_decl_file   : 1	
    <f96>   DW_AT_decl_line   : 99	
    <f97>   DW_AT_type        : <0xd75>	
    <f9b>   DW_AT_location    : 0x9d9	(location list)
 <2><f9f>: Abbrev Number: 19 (DW_TAG_variable)
    <fa0>   DW_AT_name        : j	
    <fa2>   DW_AT_decl_file   : 1	
    <fa3>   DW_AT_decl_line   : 99	
    <fa4>   DW_AT_type        : <0xd75>	
    <fa8>   DW_AT_location    : 0xab1	(location list)
 <2><fac>: Abbrev Number: 20 (DW_TAG_variable)
    <fad>   DW_AT_name        : (indirect string, offset: 0x322): FrameBufferDescrp	
    <fb1>   DW_AT_decl_file   : 1	
    <fb2>   DW_AT_decl_line   : 100	
    <fb3>   DW_AT_type        : <0x10e9>	
    <fb7>   DW_AT_location    : 1 byte block: 54 	(DW_OP_reg4 (r4))
 <2><fb9>: Abbrev Number: 21 (DW_TAG_subprogram)
    <fba>   DW_AT_external    : 1	
    <fba>   DW_AT_name        : (indirect string, offset: 0x385): RPI_GetFrameBufferDescpr	
    <fbe>   DW_AT_decl_file   : 1	
    <fbf>   DW_AT_decl_line   : 100	
    <fc0>   DW_AT_type        : <0xd3b>	
    <fc4>   DW_AT_declaration : 1	
    <fc4>   DW_AT_sibling     : <0xfca>	
 <3><fc8>: Abbrev Number: 22 (DW_TAG_unspecified_parameters)
 <3><fc9>: Abbrev Number: 0
 <2><fca>: Abbrev Number: 23 (DW_TAG_GNU_call_site)
    <fcb>   DW_AT_low_pc      : 0x8794	
    <fcf>   DW_AT_abstract_origin: <0x16af>	
 <2><fd3>: Abbrev Number: 15 (DW_TAG_GNU_call_site)
    <fd4>   DW_AT_low_pc      : 0x87bc	
    <fd8>   DW_AT_abstract_origin: <0x16c0>	
    <fdc>   DW_AT_sibling     : <0xff3>	
 <3><fe0>: Abbrev Number: 16 (DW_TAG_GNU_call_site_parameter)
    <fe1>   DW_AT_location    : 1 byte block: 52 	(DW_OP_reg2 (r2))
    <fe3>   DW_AT_GNU_call_site_value: 2 byte block: 76 0 	(DW_OP_breg6 (r6): 0)
 <3><fe6>: Abbrev Number: 16 (DW_TAG_GNU_call_site_parameter)
    <fe7>   DW_AT_location    : 1 byte block: 51 	(DW_OP_reg1 (r1))
    <fe9>   DW_AT_GNU_call_site_value: 2 byte block: 77 0 	(DW_OP_breg7 (r7): 0)
 <3><fec>: Abbrev Number: 16 (DW_TAG_GNU_call_site_parameter)
    <fed>   DW_AT_location    : 1 byte block: 50 	(DW_OP_reg0 (r0))
    <fef>   DW_AT_GNU_call_site_value: 2 byte block: 75 0 	(DW_OP_breg5 (r5): 0)
 <3><ff2>: Abbrev Number: 0
 <2><ff3>: Abbrev Number: 15 (DW_TAG_GNU_call_site)
    <ff4>   DW_AT_low_pc      : 0x8804	
    <ff8>   DW_AT_abstract_origin: <0x16c0>	
    <ffc>   DW_AT_sibling     : <0x1012>	
 <3><1000>: Abbrev Number: 16 (DW_TAG_GNU_call_site_parameter)
    <1001>   DW_AT_location    : 1 byte block: 52 	(DW_OP_reg2 (r2))
    <1003>   DW_AT_GNU_call_site_value: 1 byte block: 30 	(DW_OP_lit0)
 <3><1005>: Abbrev Number: 16 (DW_TAG_GNU_call_site_parameter)
    <1006>   DW_AT_location    : 1 byte block: 51 	(DW_OP_reg1 (r1))
    <1008>   DW_AT_GNU_call_site_value: 2 byte block: 78 0 	(DW_OP_breg8 (r8): 0)
 <3><100b>: Abbrev Number: 16 (DW_TAG_GNU_call_site_parameter)
    <100c>   DW_AT_location    : 1 byte block: 50 	(DW_OP_reg0 (r0))
    <100e>   DW_AT_GNU_call_site_value: 2 byte block: 75 0 	(DW_OP_breg5 (r5): 0)
 <3><1011>: Abbrev Number: 0
 <2><1012>: Abbrev Number: 15 (DW_TAG_GNU_call_site)
    <1013>   DW_AT_low_pc      : 0x885c	
    <1017>   DW_AT_abstract_origin: <0x16c0>	
    <101b>   DW_AT_sibling     : <0x1032>	
 <3><101f>: Abbrev Number: 16 (DW_TAG_GNU_call_site_parameter)
    <1020>   DW_AT_location    : 1 byte block: 52 	(DW_OP_reg2 (r2))
    <1022>   DW_AT_GNU_call_site_value: 2 byte block: 76 0 	(DW_OP_breg6 (r6): 0)
 <3><1025>: Abbrev Number: 16 (DW_TAG_GNU_call_site_parameter)
    <1026>   DW_AT_location    : 1 byte block: 51 	(DW_OP_reg1 (r1))
    <1028>   DW_AT_GNU_call_site_value: 2 byte block: 79 0 	(DW_OP_breg9 (r9): 0)
 <3><102b>: Abbrev Number: 16 (DW_TAG_GNU_call_site_parameter)
    <102c>   DW_AT_location    : 1 byte block: 50 	(DW_OP_reg0 (r0))
    <102e>   DW_AT_GNU_call_site_value: 2 byte block: 75 0 	(DW_OP_breg5 (r5): 0)
 <3><1031>: Abbrev Number: 0
 <2><1032>: Abbrev Number: 15 (DW_TAG_GNU_call_site)
    <1033>   DW_AT_low_pc      : 0x88c0	
    <1037>   DW_AT_abstract_origin: <0x16c0>	
    <103b>   DW_AT_sibling     : <0x1051>	
 <3><103f>: Abbrev Number: 16 (DW_TAG_GNU_call_site_parameter)
    <1040>   DW_AT_location    : 1 byte block: 52 	(DW_OP_reg2 (r2))
    <1042>   DW_AT_GNU_call_site_value: 1 byte block: 30 	(DW_OP_lit0)
 <3><1044>: Abbrev Number: 16 (DW_TAG_GNU_call_site_parameter)
    <1045>   DW_AT_location    : 1 byte block: 51 	(DW_OP_reg1 (r1))
    <1047>   DW_AT_GNU_call_site_value: 2 byte block: 79 0 	(DW_OP_breg9 (r9): 0)
 <3><104a>: Abbrev Number: 16 (DW_TAG_GNU_call_site_parameter)
    <104b>   DW_AT_location    : 1 byte block: 50 	(DW_OP_reg0 (r0))
    <104d>   DW_AT_GNU_call_site_value: 2 byte block: 75 0 	(DW_OP_breg5 (r5): 0)
 <3><1050>: Abbrev Number: 0
 <2><1051>: Abbrev Number: 15 (DW_TAG_GNU_call_site)
    <1052>   DW_AT_low_pc      : 0x8914	
    <1056>   DW_AT_abstract_origin: <0x16c0>	
    <105a>   DW_AT_sibling     : <0x1071>	
 <3><105e>: Abbrev Number: 16 (DW_TAG_GNU_call_site_parameter)
    <105f>   DW_AT_location    : 1 byte block: 52 	(DW_OP_reg2 (r2))
    <1061>   DW_AT_GNU_call_site_value: 2 byte block: 76 0 	(DW_OP_breg6 (r6): 0)
 <3><1064>: Abbrev Number: 16 (DW_TAG_GNU_call_site_parameter)
    <1065>   DW_AT_location    : 1 byte block: 51 	(DW_OP_reg1 (r1))
    <1067>   DW_AT_GNU_call_site_value: 2 byte block: 79 0 	(DW_OP_breg9 (r9): 0)
 <3><106a>: Abbrev Number: 16 (DW_TAG_GNU_call_site_parameter)
    <106b>   DW_AT_location    : 1 byte block: 50 	(DW_OP_reg0 (r0))
    <106d>   DW_AT_GNU_call_site_value: 2 byte block: 75 7f 	(DW_OP_breg5 (r5): -1)
 <3><1070>: Abbrev Number: 0
 <2><1071>: Abbrev Number: 15 (DW_TAG_GNU_call_site)
    <1072>   DW_AT_low_pc      : 0x8954	
    <1076>   DW_AT_abstract_origin: <0x16c0>	
    <107a>   DW_AT_sibling     : <0x108f>	
 <3><107e>: Abbrev Number: 16 (DW_TAG_GNU_call_site_parameter)
    <107f>   DW_AT_location    : 1 byte block: 52 	(DW_OP_reg2 (r2))
    <1081>   DW_AT_GNU_call_site_value: 1 byte block: 30 	(DW_OP_lit0)
 <3><1083>: Abbrev Number: 16 (DW_TAG_GNU_call_site_parameter)
    <1084>   DW_AT_location    : 1 byte block: 51 	(DW_OP_reg1 (r1))
    <1086>   DW_AT_GNU_call_site_value: 2 byte block: 75 0 	(DW_OP_breg5 (r5): 0)
 <3><1089>: Abbrev Number: 16 (DW_TAG_GNU_call_site_parameter)
    <108a>   DW_AT_location    : 1 byte block: 50 	(DW_OP_reg0 (r0))
    <108c>   DW_AT_GNU_call_site_value: 1 byte block: 37 	(DW_OP_lit7)
 <3><108e>: Abbrev Number: 0
 <2><108f>: Abbrev Number: 15 (DW_TAG_GNU_call_site)
    <1090>   DW_AT_low_pc      : 0x8964	
    <1094>   DW_AT_abstract_origin: <0x16c0>	
    <1098>   DW_AT_sibling     : <0x10ad>	
 <3><109c>: Abbrev Number: 16 (DW_TAG_GNU_call_site_parameter)
    <109d>   DW_AT_location    : 1 byte block: 52 	(DW_OP_reg2 (r2))
    <109f>   DW_AT_GNU_call_site_value: 1 byte block: 30 	(DW_OP_lit0)
 <3><10a1>: Abbrev Number: 16 (DW_TAG_GNU_call_site_parameter)
    <10a2>   DW_AT_location    : 1 byte block: 51 	(DW_OP_reg1 (r1))
    <10a4>   DW_AT_GNU_call_site_value: 2 byte block: 75 0 	(DW_OP_breg5 (r5): 0)
 <3><10a7>: Abbrev Number: 16 (DW_TAG_GNU_call_site_parameter)
    <10a8>   DW_AT_location    : 1 byte block: 50 	(DW_OP_reg0 (r0))
    <10aa>   DW_AT_GNU_call_site_value: 1 byte block: 38 	(DW_OP_lit8)
 <3><10ac>: Abbrev Number: 0
 <2><10ad>: Abbrev Number: 15 (DW_TAG_GNU_call_site)
    <10ae>   DW_AT_low_pc      : 0x89b0	
    <10b2>   DW_AT_abstract_origin: <0x16c0>	
    <10b6>   DW_AT_sibling     : <0x10cd>	
 <3><10ba>: Abbrev Number: 16 (DW_TAG_GNU_call_site_parameter)
    <10bb>   DW_AT_location    : 1 byte block: 52 	(DW_OP_reg2 (r2))
    <10bd>   DW_AT_GNU_call_site_value: 2 byte block: 76 0 	(DW_OP_breg6 (r6): 0)
 <3><10c0>: Abbrev Number: 16 (DW_TAG_GNU_call_site_parameter)
    <10c1>   DW_AT_location    : 1 byte block: 51 	(DW_OP_reg1 (r1))
    <10c3>   DW_AT_GNU_call_site_value: 2 byte block: 77 0 	(DW_OP_breg7 (r7): 0)
 <3><10c6>: Abbrev Number: 16 (DW_TAG_GNU_call_site_parameter)
    <10c7>   DW_AT_location    : 1 byte block: 50 	(DW_OP_reg0 (r0))
    <10c9>   DW_AT_GNU_call_site_value: 2 byte block: 75 0 	(DW_OP_breg5 (r5): 0)
 <3><10cc>: Abbrev Number: 0
 <2><10cd>: Abbrev Number: 24 (DW_TAG_GNU_call_site)
    <10ce>   DW_AT_low_pc      : 0x8a10	
    <10d2>   DW_AT_abstract_origin: <0x16c0>	
 <3><10d6>: Abbrev Number: 16 (DW_TAG_GNU_call_site_parameter)
    <10d7>   DW_AT_location    : 1 byte block: 52 	(DW_OP_reg2 (r2))
    <10d9>   DW_AT_GNU_call_site_value: 1 byte block: 30 	(DW_OP_lit0)
 <3><10db>: Abbrev Number: 16 (DW_TAG_GNU_call_site_parameter)
    <10dc>   DW_AT_location    : 1 byte block: 51 	(DW_OP_reg1 (r1))
    <10de>   DW_AT_GNU_call_site_value: 2 byte block: 78 0 	(DW_OP_breg8 (r8): 0)
 <3><10e1>: Abbrev Number: 16 (DW_TAG_GNU_call_site_parameter)
    <10e2>   DW_AT_location    : 1 byte block: 50 	(DW_OP_reg0 (r0))
    <10e4>   DW_AT_GNU_call_site_value: 2 byte block: 75 0 	(DW_OP_breg5 (r5): 0)
 <3><10e7>: Abbrev Number: 0
 <2><10e8>: Abbrev Number: 0
 <1><10e9>: Abbrev Number: 11 (DW_TAG_pointer_type)
    <10ea>   DW_AT_byte_size   : 4	
    <10eb>   DW_AT_type        : <0xe53>	
 <1><10ef>: Abbrev Number: 14 (DW_TAG_subprogram)
    <10f0>   DW_AT_external    : 1	
    <10f0>   DW_AT_name        : (indirect string, offset: 0x54b): bgDrawLogo	
    <10f4>   DW_AT_decl_file   : 1	
    <10f5>   DW_AT_decl_line   : 151	
    <10f6>   DW_AT_prototyped  : 1	
    <10f6>   DW_AT_low_pc      : 0x8a3c	
    <10fa>   DW_AT_high_pc     : 0x168	
    <10fe>   DW_AT_frame_base  : 1 byte block: 9c 	(DW_OP_call_frame_cfa)
    <1100>   DW_AT_GNU_all_call_sites: 1	
    <1100>   DW_AT_sibling     : <0x123c>	
 <2><1104>: Abbrev Number: 18 (DW_TAG_formal_parameter)
    <1105>   DW_AT_name        : (indirect string, offset: 0x46c): color	
    <1109>   DW_AT_decl_file   : 1	
    <110a>   DW_AT_decl_line   : 151	
    <110b>   DW_AT_type        : <0xd5f>	
    <110f>   DW_AT_location    : 0xb41	(location list)
 <2><1113>: Abbrev Number: 15 (DW_TAG_GNU_call_site)
    <1114>   DW_AT_low_pc      : 0x8a6c	
    <1118>   DW_AT_abstract_origin: <0x16db>	
    <111c>   DW_AT_sibling     : <0x112d>	
 <3><1120>: Abbrev Number: 16 (DW_TAG_GNU_call_site_parameter)
    <1121>   DW_AT_location    : 1 byte block: 51 	(DW_OP_reg1 (r1))
    <1123>   DW_AT_GNU_call_site_value: 2 byte block: 8 50 	(DW_OP_const1u: 80)
 <3><1126>: Abbrev Number: 16 (DW_TAG_GNU_call_site_parameter)
    <1127>   DW_AT_location    : 1 byte block: 50 	(DW_OP_reg0 (r0))
    <1129>   DW_AT_GNU_call_site_value: 2 byte block: 75 0 	(DW_OP_breg5 (r5): 0)
 <3><112c>: Abbrev Number: 0
 <2><112d>: Abbrev Number: 15 (DW_TAG_GNU_call_site)
    <112e>   DW_AT_low_pc      : 0x8a8c	
    <1132>   DW_AT_abstract_origin: <0x16db>	
    <1136>   DW_AT_sibling     : <0x1147>	
 <3><113a>: Abbrev Number: 16 (DW_TAG_GNU_call_site_parameter)
    <113b>   DW_AT_location    : 1 byte block: 51 	(DW_OP_reg1 (r1))
    <113d>   DW_AT_GNU_call_site_value: 2 byte block: 8 50 	(DW_OP_const1u: 80)
 <3><1140>: Abbrev Number: 16 (DW_TAG_GNU_call_site_parameter)
    <1141>   DW_AT_location    : 1 byte block: 50 	(DW_OP_reg0 (r0))
    <1143>   DW_AT_GNU_call_site_value: 2 byte block: 75 38 	(DW_OP_breg5 (r5): 56)
 <3><1146>: Abbrev Number: 0
 <2><1147>: Abbrev Number: 15 (DW_TAG_GNU_call_site)
    <1148>   DW_AT_low_pc      : 0x8aa0	
    <114c>   DW_AT_abstract_origin: <0x1690>	
    <1150>   DW_AT_sibling     : <0x115b>	
 <3><1154>: Abbrev Number: 16 (DW_TAG_GNU_call_site_parameter)
    <1155>   DW_AT_location    : 1 byte block: 50 	(DW_OP_reg0 (r0))
    <1157>   DW_AT_GNU_call_site_value: 2 byte block: 8 5c 	(DW_OP_const1u: 92)
 <3><115a>: Abbrev Number: 0
 <2><115b>: Abbrev Number: 15 (DW_TAG_GNU_call_site)
    <115c>   DW_AT_low_pc      : 0x8ab4	
    <1160>   DW_AT_abstract_origin: <0x1690>	
    <1164>   DW_AT_sibling     : <0x116f>	
 <3><1168>: Abbrev Number: 16 (DW_TAG_GNU_call_site_parameter)
    <1169>   DW_AT_location    : 1 byte block: 50 	(DW_OP_reg0 (r0))
    <116b>   DW_AT_GNU_call_site_value: 2 byte block: 8 5c 	(DW_OP_const1u: 92)
 <3><116e>: Abbrev Number: 0
 <2><116f>: Abbrev Number: 15 (DW_TAG_GNU_call_site)
    <1170>   DW_AT_low_pc      : 0x8ac8	
    <1174>   DW_AT_abstract_origin: <0x1690>	
    <1178>   DW_AT_sibling     : <0x1183>	
 <3><117c>: Abbrev Number: 16 (DW_TAG_GNU_call_site_parameter)
    <117d>   DW_AT_location    : 1 byte block: 50 	(DW_OP_reg0 (r0))
    <117f>   DW_AT_GNU_call_site_value: 2 byte block: 8 5c 	(DW_OP_const1u: 92)
 <3><1182>: Abbrev Number: 0
 <2><1183>: Abbrev Number: 15 (DW_TAG_GNU_call_site)
    <1184>   DW_AT_low_pc      : 0x8ae8	
    <1188>   DW_AT_abstract_origin: <0x16db>	
    <118c>   DW_AT_sibling     : <0x119e>	
 <3><1190>: Abbrev Number: 16 (DW_TAG_GNU_call_site_parameter)
    <1191>   DW_AT_location    : 1 byte block: 51 	(DW_OP_reg1 (r1))
    <1193>   DW_AT_GNU_call_site_value: 2 byte block: 8 50 	(DW_OP_const1u: 80)
 <3><1196>: Abbrev Number: 16 (DW_TAG_GNU_call_site_parameter)
    <1197>   DW_AT_location    : 1 byte block: 50 	(DW_OP_reg0 (r0))
    <1199>   DW_AT_GNU_call_site_value: 3 byte block: 75 f0 0 	(DW_OP_breg5 (r5): 112)
 <3><119d>: Abbrev Number: 0
 <2><119e>: Abbrev Number: 15 (DW_TAG_GNU_call_site)
    <119f>   DW_AT_low_pc      : 0x8afc	
    <11a3>   DW_AT_abstract_origin: <0x1690>	
    <11a7>   DW_AT_sibling     : <0x11b2>	
 <3><11ab>: Abbrev Number: 16 (DW_TAG_GNU_call_site_parameter)
    <11ac>   DW_AT_location    : 1 byte block: 50 	(DW_OP_reg0 (r0))
    <11ae>   DW_AT_GNU_call_site_value: 2 byte block: 8 5c 	(DW_OP_const1u: 92)
 <3><11b1>: Abbrev Number: 0
 <2><11b2>: Abbrev Number: 15 (DW_TAG_GNU_call_site)
    <11b3>   DW_AT_low_pc      : 0x8b10	
    <11b7>   DW_AT_abstract_origin: <0x1690>	
    <11bb>   DW_AT_sibling     : <0x11c6>	
 <3><11bf>: Abbrev Number: 16 (DW_TAG_GNU_call_site_parameter)
    <11c0>   DW_AT_location    : 1 byte block: 50 	(DW_OP_reg0 (r0))
    <11c2>   DW_AT_GNU_call_site_value: 2 byte block: 8 5c 	(DW_OP_const1u: 92)
 <3><11c5>: Abbrev Number: 0
 <2><11c6>: Abbrev Number: 15 (DW_TAG_GNU_call_site)
    <11c7>   DW_AT_low_pc      : 0x8b24	
    <11cb>   DW_AT_abstract_origin: <0x1690>	
    <11cf>   DW_AT_sibling     : <0x11da>	
 <3><11d3>: Abbrev Number: 16 (DW_TAG_GNU_call_site_parameter)
    <11d4>   DW_AT_location    : 1 byte block: 50 	(DW_OP_reg0 (r0))
    <11d6>   DW_AT_GNU_call_site_value: 2 byte block: 8 5c 	(DW_OP_const1u: 92)
 <3><11d9>: Abbrev Number: 0
 <2><11da>: Abbrev Number: 15 (DW_TAG_GNU_call_site)
    <11db>   DW_AT_low_pc      : 0x8b44	
    <11df>   DW_AT_abstract_origin: <0x16db>	
    <11e3>   DW_AT_sibling     : <0x11f5>	
 <3><11e7>: Abbrev Number: 16 (DW_TAG_GNU_call_site_parameter)
    <11e8>   DW_AT_location    : 1 byte block: 51 	(DW_OP_reg1 (r1))
    <11ea>   DW_AT_GNU_call_site_value: 2 byte block: 8 50 	(DW_OP_const1u: 80)
 <3><11ed>: Abbrev Number: 16 (DW_TAG_GNU_call_site_parameter)
    <11ee>   DW_AT_location    : 1 byte block: 50 	(DW_OP_reg0 (r0))
    <11f0>   DW_AT_GNU_call_site_value: 3 byte block: 75 a8 1 	(DW_OP_breg5 (r5): 168)
 <3><11f4>: Abbrev Number: 0
 <2><11f5>: Abbrev Number: 15 (DW_TAG_GNU_call_site)
    <11f6>   DW_AT_low_pc      : 0x8b64	
    <11fa>   DW_AT_abstract_origin: <0x16db>	
    <11fe>   DW_AT_sibling     : <0x1210>	
 <3><1202>: Abbrev Number: 16 (DW_TAG_GNU_call_site_parameter)
    <1203>   DW_AT_location    : 1 byte block: 51 	(DW_OP_reg1 (r1))
    <1205>   DW_AT_GNU_call_site_value: 2 byte block: 8 50 	(DW_OP_const1u: 80)
 <3><1208>: Abbrev Number: 16 (DW_TAG_GNU_call_site_parameter)
    <1209>   DW_AT_location    : 1 byte block: 50 	(DW_OP_reg0 (r0))
    <120b>   DW_AT_GNU_call_site_value: 3 byte block: 75 bc 1 	(DW_OP_breg5 (r5): 188)
 <3><120f>: Abbrev Number: 0
 <2><1210>: Abbrev Number: 15 (DW_TAG_GNU_call_site)
    <1211>   DW_AT_low_pc      : 0x8b84	
    <1215>   DW_AT_abstract_origin: <0x16db>	
    <1219>   DW_AT_sibling     : <0x122b>	
 <3><121d>: Abbrev Number: 16 (DW_TAG_GNU_call_site_parameter)
    <121e>   DW_AT_location    : 1 byte block: 51 	(DW_OP_reg1 (r1))
    <1220>   DW_AT_GNU_call_site_value: 2 byte block: 8 50 	(DW_OP_const1u: 80)
 <3><1223>: Abbrev Number: 16 (DW_TAG_GNU_call_site_parameter)
    <1224>   DW_AT_location    : 1 byte block: 50 	(DW_OP_reg0 (r0))
    <1226>   DW_AT_GNU_call_site_value: 3 byte block: 75 cc 1 	(DW_OP_breg5 (r5): 204)
 <3><122a>: Abbrev Number: 0
 <2><122b>: Abbrev Number: 17 (DW_TAG_GNU_call_site)
    <122c>   DW_AT_low_pc      : 0x8b9c	
    <1230>   DW_AT_GNU_tail_call: 1	
    <1230>   DW_AT_abstract_origin: <0x1690>	
 <3><1234>: Abbrev Number: 16 (DW_TAG_GNU_call_site_parameter)
    <1235>   DW_AT_location    : 1 byte block: 50 	(DW_OP_reg0 (r0))
    <1237>   DW_AT_GNU_call_site_value: 2 byte block: 8 5c 	(DW_OP_const1u: 92)
 <3><123a>: Abbrev Number: 0
 <2><123b>: Abbrev Number: 0
 <1><123c>: Abbrev Number: 25 (DW_TAG_subprogram)
    <123d>   DW_AT_external    : 1	
    <123d>   DW_AT_name        : (indirect string, offset: 0x499): parseAtags	
    <1241>   DW_AT_decl_file   : 1	
    <1242>   DW_AT_decl_line   : 180	
    <1243>   DW_AT_prototyped  : 1	
    <1243>   DW_AT_low_pc      : 0x8ba4	
    <1247>   DW_AT_high_pc     : 0x1c4	
    <124b>   DW_AT_frame_base  : 1 byte block: 9c 	(DW_OP_call_frame_cfa)
    <124d>   DW_AT_sibling     : <0x1291>	
 <2><1251>: Abbrev Number: 26 (DW_TAG_formal_parameter)
    <1252>   DW_AT_name        : (indirect string, offset: 0x49): atagsAddr	
    <1256>   DW_AT_decl_file   : 1	
    <1257>   DW_AT_decl_line   : 180	
    <1258>   DW_AT_type        : <0xd75>	
    <125c>   DW_AT_location    : 1 byte block: 50 	(DW_OP_reg0 (r0))
 <2><125e>: Abbrev Number: 20 (DW_TAG_variable)
    <125f>   DW_AT_name        : (indirect string, offset: 0x53d): atags	
    <1263>   DW_AT_decl_file   : 1	
    <1264>   DW_AT_decl_line   : 182	
    <1265>   DW_AT_type        : <0x1291>	
    <1269>   DW_AT_location    : 1 byte block: 50 	(DW_OP_reg0 (r0))
 <2><126b>: Abbrev Number: 27 (DW_TAG_variable)
    <126c>   DW_AT_name        : tag	
    <1270>   DW_AT_decl_file   : 1	
    <1271>   DW_AT_decl_line   : 183	
    <1272>   DW_AT_type        : <0xd75>	
    <1276>   DW_AT_location    : 1 byte block: 53 	(DW_OP_reg3 (r3))
 <2><1278>: Abbrev Number: 20 (DW_TAG_variable)
    <1279>   DW_AT_name        : (indirect string, offset: 0x543): cmdLine	
    <127d>   DW_AT_decl_file   : 1	
    <127e>   DW_AT_decl_line   : 184	
    <127f>   DW_AT_type        : <0x1297>	
    <1283>   DW_AT_location    : 1 byte block: 56 	(DW_OP_reg6 (r6))
 <2><1285>: Abbrev Number: 28 (DW_TAG_variable)
    <1286>   DW_AT_name        : pos	
    <128a>   DW_AT_decl_file   : 1	
    <128b>   DW_AT_decl_line   : 185	
    <128c>   DW_AT_type        : <0xd75>	
 <2><1290>: Abbrev Number: 0
 <1><1291>: Abbrev Number: 11 (DW_TAG_pointer_type)
    <1292>   DW_AT_byte_size   : 4	
    <1293>   DW_AT_type        : <0xd85>	
 <1><1297>: Abbrev Number: 11 (DW_TAG_pointer_type)
    <1298>   DW_AT_byte_size   : 4	
    <1299>   DW_AT_type        : <0xd54>	
 <1><129d>: Abbrev Number: 29 (DW_TAG_subprogram)
    <129e>   DW_AT_external    : 1	
    <129e>   DW_AT_name        : (indirect string, offset: 0x4a4): displayBgInfo	
    <12a2>   DW_AT_decl_file   : 1	
    <12a3>   DW_AT_decl_line   : 279	
    <12a5>   DW_AT_prototyped  : 1	
    <12a5>   DW_AT_low_pc      : 0x8d68	
    <12a9>   DW_AT_high_pc     : 0x23c	
    <12ad>   DW_AT_frame_base  : 1 byte block: 9c 	(DW_OP_call_frame_cfa)
    <12af>   DW_AT_GNU_all_call_sites: 1	
    <12af>   DW_AT_sibling     : <0x15f5>	
 <2><12b3>: Abbrev Number: 30 (DW_TAG_variable)
    <12b4>   DW_AT_name        : (indirect string, offset: 0x487): currentX	
    <12b8>   DW_AT_decl_file   : 1	
    <12b9>   DW_AT_decl_line   : 282	
    <12bb>   DW_AT_type        : <0xd5f>	
    <12bf>   DW_AT_location    : 0xb62	(location list)
 <2><12c3>: Abbrev Number: 30 (DW_TAG_variable)
    <12c4>   DW_AT_name        : (indirect string, offset: 0x4e9): currentX2	
    <12c8>   DW_AT_decl_file   : 1	
    <12c9>   DW_AT_decl_line   : 283	
    <12cb>   DW_AT_type        : <0xd5f>	
    <12cf>   DW_AT_location    : 0xba1	(location list)
 <2><12d3>: Abbrev Number: 31 (DW_TAG_variable)
    <12d4>   DW_AT_name        : x0	
    <12d7>   DW_AT_decl_file   : 1	
    <12d8>   DW_AT_decl_line   : 284	
    <12da>   DW_AT_type        : <0xd5f>	
    <12de>   DW_AT_location    : 0xc17	(location list)
 <2><12e2>: Abbrev Number: 30 (DW_TAG_variable)
    <12e3>   DW_AT_name        : (indirect string, offset: 0x490): currentY	
    <12e7>   DW_AT_decl_file   : 1	
    <12e8>   DW_AT_decl_line   : 285	
    <12ea>   DW_AT_type        : <0xd5f>	
    <12ee>   DW_AT_location    : 0xc2a	(location list)
 <2><12f2>: Abbrev Number: 30 (DW_TAG_variable)
    <12f3>   DW_AT_name        : (indirect string, offset: 0x322): FrameBufferDescrp	
    <12f7>   DW_AT_decl_file   : 1	
    <12f8>   DW_AT_decl_line   : 286	
    <12fa>   DW_AT_type        : <0x10e9>	
    <12fe>   DW_AT_location    : 0xce6	(location list)
 <2><1302>: Abbrev Number: 21 (DW_TAG_subprogram)
    <1303>   DW_AT_external    : 1	
    <1303>   DW_AT_name        : (indirect string, offset: 0x385): RPI_GetFrameBufferDescpr	
    <1307>   DW_AT_decl_file   : 1	
    <1308>   DW_AT_decl_line   : 100	
    <1309>   DW_AT_type        : <0xd3b>	
    <130d>   DW_AT_declaration : 1	
    <130d>   DW_AT_sibling     : <0x1313>	
 <3><1311>: Abbrev Number: 22 (DW_TAG_unspecified_parameters)
 <3><1312>: Abbrev Number: 0
 <2><1313>: Abbrev Number: 23 (DW_TAG_GNU_call_site)
    <1314>   DW_AT_low_pc      : 0x8d70	
    <1318>   DW_AT_abstract_origin: <0x16af>	
 <2><131c>: Abbrev Number: 15 (DW_TAG_GNU_call_site)
    <131d>   DW_AT_low_pc      : 0x8dac	
    <1321>   DW_AT_abstract_origin: <0x16db>	
    <1325>   DW_AT_sibling     : <0x1349>	
 <3><1329>: Abbrev Number: 16 (DW_TAG_GNU_call_site_parameter)
    <132a>   DW_AT_location    : 1 byte block: 53 	(DW_OP_reg3 (r3))
    <132c>   DW_AT_GNU_call_site_value: 6 byte block: 75 10 a ff ff 1a 	(DW_OP_breg5 (r5): 16; DW_OP_const2u: 65535; DW_OP_and)
 <3><1333>: Abbrev Number: 16 (DW_TAG_GNU_call_site_parameter)
    <1334>   DW_AT_location    : 1 byte block: 52 	(DW_OP_reg2 (r2))
    <1336>   DW_AT_GNU_call_site_value: 2 byte block: 77 0 	(DW_OP_breg7 (r7): 0)
 <3><1339>: Abbrev Number: 16 (DW_TAG_GNU_call_site_parameter)
    <133a>   DW_AT_location    : 1 byte block: 51 	(DW_OP_reg1 (r1))
    <133c>   DW_AT_GNU_call_site_value: 2 byte block: 8 64 	(DW_OP_const1u: 100)
 <3><133f>: Abbrev Number: 16 (DW_TAG_GNU_call_site_parameter)
    <1340>   DW_AT_location    : 1 byte block: 50 	(DW_OP_reg0 (r0))
    <1342>   DW_AT_GNU_call_site_value: 5 byte block: 3 54 c1 0 0 	(DW_OP_addr: c154)
 <3><1348>: Abbrev Number: 0
 <2><1349>: Abbrev Number: 15 (DW_TAG_GNU_call_site)
    <134a>   DW_AT_low_pc      : 0x8dcc	
    <134e>   DW_AT_abstract_origin: <0x16db>	
    <1352>   DW_AT_sibling     : <0x1376>	
 <3><1356>: Abbrev Number: 16 (DW_TAG_GNU_call_site_parameter)
    <1357>   DW_AT_location    : 1 byte block: 53 	(DW_OP_reg3 (r3))
    <1359>   DW_AT_GNU_call_site_value: 6 byte block: 75 30 a ff ff 1a 	(DW_OP_breg5 (r5): 48; DW_OP_const2u: 65535; DW_OP_and)
 <3><1360>: Abbrev Number: 16 (DW_TAG_GNU_call_site_parameter)
    <1361>   DW_AT_location    : 1 byte block: 52 	(DW_OP_reg2 (r2))
    <1363>   DW_AT_GNU_call_site_value: 2 byte block: 74 0 	(DW_OP_breg4 (r4): 0)
 <3><1366>: Abbrev Number: 16 (DW_TAG_GNU_call_site_parameter)
    <1367>   DW_AT_location    : 1 byte block: 51 	(DW_OP_reg1 (r1))
    <1369>   DW_AT_GNU_call_site_value: 2 byte block: 8 64 	(DW_OP_const1u: 100)
 <3><136c>: Abbrev Number: 16 (DW_TAG_GNU_call_site_parameter)
    <136d>   DW_AT_location    : 1 byte block: 50 	(DW_OP_reg0 (r0))
    <136f>   DW_AT_GNU_call_site_value: 5 byte block: 3 6c c1 0 0 	(DW_OP_addr: c16c)
 <3><1375>: Abbrev Number: 0
 <2><1376>: Abbrev Number: 15 (DW_TAG_GNU_call_site)
    <1377>   DW_AT_low_pc      : 0x8de4	
    <137b>   DW_AT_abstract_origin: <0x16db>	
    <137f>   DW_AT_sibling     : <0x13a4>	
 <3><1383>: Abbrev Number: 16 (DW_TAG_GNU_call_site_parameter)
    <1384>   DW_AT_location    : 1 byte block: 53 	(DW_OP_reg3 (r3))
    <1386>   DW_AT_GNU_call_site_value: 7 byte block: 75 c0 0 a ff ff 1a 	(DW_OP_breg5 (r5): 64; DW_OP_const2u: 65535; DW_OP_and)
 <3><138e>: Abbrev Number: 16 (DW_TAG_GNU_call_site_parameter)
    <138f>   DW_AT_location    : 1 byte block: 52 	(DW_OP_reg2 (r2))
    <1391>   DW_AT_GNU_call_site_value: 2 byte block: 74 0 	(DW_OP_breg4 (r4): 0)
 <3><1394>: Abbrev Number: 16 (DW_TAG_GNU_call_site_parameter)
    <1395>   DW_AT_location    : 1 byte block: 51 	(DW_OP_reg1 (r1))
    <1397>   DW_AT_GNU_call_site_value: 2 byte block: 8 64 	(DW_OP_const1u: 100)
 <3><139a>: Abbrev Number: 16 (DW_TAG_GNU_call_site_parameter)
    <139b>   DW_AT_location    : 1 byte block: 50 	(DW_OP_reg0 (r0))
    <139d>   DW_AT_GNU_call_site_value: 5 byte block: 3 84 c1 0 0 	(DW_OP_addr: c184)
 <3><13a3>: Abbrev Number: 0
 <2><13a4>: Abbrev Number: 15 (DW_TAG_GNU_call_site)
    <13a5>   DW_AT_low_pc      : 0x8dfc	
    <13a9>   DW_AT_abstract_origin: <0x16db>	
    <13ad>   DW_AT_sibling     : <0x13d2>	
 <3><13b1>: Abbrev Number: 16 (DW_TAG_GNU_call_site_parameter)
    <13b2>   DW_AT_location    : 1 byte block: 53 	(DW_OP_reg3 (r3))
    <13b4>   DW_AT_GNU_call_site_value: 7 byte block: 75 d0 0 a ff ff 1a 	(DW_OP_breg5 (r5): 80; DW_OP_const2u: 65535; DW_OP_and)
 <3><13bc>: Abbrev Number: 16 (DW_TAG_GNU_call_site_parameter)
    <13bd>   DW_AT_location    : 1 byte block: 52 	(DW_OP_reg2 (r2))
    <13bf>   DW_AT_GNU_call_site_value: 2 byte block: 74 0 	(DW_OP_breg4 (r4): 0)
 <3><13c2>: Abbrev Number: 16 (DW_TAG_GNU_call_site_parameter)
    <13c3>   DW_AT_location    : 1 byte block: 51 	(DW_OP_reg1 (r1))
    <13c5>   DW_AT_GNU_call_site_value: 2 byte block: 8 64 	(DW_OP_const1u: 100)
 <3><13c8>: Abbrev Number: 16 (DW_TAG_GNU_call_site_parameter)
    <13c9>   DW_AT_location    : 1 byte block: 50 	(DW_OP_reg0 (r0))
    <13cb>   DW_AT_GNU_call_site_value: 5 byte block: 3 a0 c1 0 0 	(DW_OP_addr: c1a0)
 <3><13d1>: Abbrev Number: 0
 <2><13d2>: Abbrev Number: 15 (DW_TAG_GNU_call_site)
    <13d3>   DW_AT_low_pc      : 0x8e1c	
    <13d7>   DW_AT_abstract_origin: <0x16db>	
    <13db>   DW_AT_sibling     : <0x1400>	
 <3><13df>: Abbrev Number: 16 (DW_TAG_GNU_call_site_parameter)
    <13e0>   DW_AT_location    : 1 byte block: 53 	(DW_OP_reg3 (r3))
    <13e2>   DW_AT_GNU_call_site_value: 7 byte block: 75 f0 0 a ff ff 1a 	(DW_OP_breg5 (r5): 112; DW_OP_const2u: 65535; DW_OP_and)
 <3><13ea>: Abbrev Number: 16 (DW_TAG_GNU_call_site_parameter)
    <13eb>   DW_AT_location    : 1 byte block: 52 	(DW_OP_reg2 (r2))
    <13ed>   DW_AT_GNU_call_site_value: 2 byte block: 77 0 	(DW_OP_breg7 (r7): 0)
 <3><13f0>: Abbrev Number: 16 (DW_TAG_GNU_call_site_parameter)
    <13f1>   DW_AT_location    : 1 byte block: 51 	(DW_OP_reg1 (r1))
    <13f3>   DW_AT_GNU_call_site_value: 2 byte block: 8 64 	(DW_OP_const1u: 100)
 <3><13f6>: Abbrev Number: 16 (DW_TAG_GNU_call_site_parameter)
    <13f7>   DW_AT_location    : 1 byte block: 50 	(DW_OP_reg0 (r0))
    <13f9>   DW_AT_GNU_call_site_value: 5 byte block: 3 b4 c1 0 0 	(DW_OP_addr: c1b4)
 <3><13ff>: Abbrev Number: 0
 <2><1400>: Abbrev Number: 15 (DW_TAG_GNU_call_site)
    <1401>   DW_AT_low_pc      : 0x8e30	
    <1405>   DW_AT_abstract_origin: <0x16db>	
    <1409>   DW_AT_sibling     : <0x1429>	
 <3><140d>: Abbrev Number: 16 (DW_TAG_GNU_call_site_parameter)
    <140e>   DW_AT_location    : 1 byte block: 53 	(DW_OP_reg3 (r3))
    <1410>   DW_AT_GNU_call_site_value: 2 byte block: 78 0 	(DW_OP_breg8 (r8): 0)
 <3><1413>: Abbrev Number: 16 (DW_TAG_GNU_call_site_parameter)
    <1414>   DW_AT_location    : 1 byte block: 52 	(DW_OP_reg2 (r2))
    <1416>   DW_AT_GNU_call_site_value: 2 byte block: 74 0 	(DW_OP_breg4 (r4): 0)
 <3><1419>: Abbrev Number: 16 (DW_TAG_GNU_call_site_parameter)
    <141a>   DW_AT_location    : 1 byte block: 51 	(DW_OP_reg1 (r1))
    <141c>   DW_AT_GNU_call_site_value: 2 byte block: 8 64 	(DW_OP_const1u: 100)
 <3><141f>: Abbrev Number: 16 (DW_TAG_GNU_call_site_parameter)
    <1420>   DW_AT_location    : 1 byte block: 50 	(DW_OP_reg0 (r0))
    <1422>   DW_AT_GNU_call_site_value: 5 byte block: 3 cc c1 0 0 	(DW_OP_addr: c1cc)
 <3><1428>: Abbrev Number: 0
 <2><1429>: Abbrev Number: 15 (DW_TAG_GNU_call_site)
    <142a>   DW_AT_low_pc      : 0x8e54	
    <142e>   DW_AT_abstract_origin: <0x16db>	
    <1432>   DW_AT_sibling     : <0x144e>	
 <3><1436>: Abbrev Number: 16 (DW_TAG_GNU_call_site_parameter)
    <1437>   DW_AT_location    : 1 byte block: 53 	(DW_OP_reg3 (r3))
    <1439>   DW_AT_GNU_call_site_value: 7 byte block: 75 90 1 a ff ff 1a 	(DW_OP_breg5 (r5): 144; DW_OP_const2u: 65535; DW_OP_and)
 <3><1441>: Abbrev Number: 16 (DW_TAG_GNU_call_site_parameter)
    <1442>   DW_AT_location    : 1 byte block: 51 	(DW_OP_reg1 (r1))
    <1444>   DW_AT_GNU_call_site_value: 2 byte block: 8 28 	(DW_OP_const1u: 40)
 <3><1447>: Abbrev Number: 16 (DW_TAG_GNU_call_site_parameter)
    <1448>   DW_AT_location    : 1 byte block: 50 	(DW_OP_reg0 (r0))
    <144a>   DW_AT_GNU_call_site_value: 2 byte block: 76 0 	(DW_OP_breg6 (r6): 0)
 <3><144d>: Abbrev Number: 0
 <2><144e>: Abbrev Number: 15 (DW_TAG_GNU_call_site)
    <144f>   DW_AT_low_pc      : 0x8e68	
    <1453>   DW_AT_abstract_origin: <0x16db>	
    <1457>   DW_AT_sibling     : <0x1477>	
 <3><145b>: Abbrev Number: 16 (DW_TAG_GNU_call_site_parameter)
    <145c>   DW_AT_location    : 1 byte block: 53 	(DW_OP_reg3 (r3))
    <145e>   DW_AT_GNU_call_site_value: 2 byte block: 78 0 	(DW_OP_breg8 (r8): 0)
 <3><1461>: Abbrev Number: 16 (DW_TAG_GNU_call_site_parameter)
    <1462>   DW_AT_location    : 1 byte block: 52 	(DW_OP_reg2 (r2))
    <1464>   DW_AT_GNU_call_site_value: 2 byte block: 74 0 	(DW_OP_breg4 (r4): 0)
 <3><1467>: Abbrev Number: 16 (DW_TAG_GNU_call_site_parameter)
    <1468>   DW_AT_location    : 1 byte block: 51 	(DW_OP_reg1 (r1))
    <146a>   DW_AT_GNU_call_site_value: 2 byte block: 8 64 	(DW_OP_const1u: 100)
 <3><146d>: Abbrev Number: 16 (DW_TAG_GNU_call_site_parameter)
    <146e>   DW_AT_location    : 1 byte block: 50 	(DW_OP_reg0 (r0))
    <1470>   DW_AT_GNU_call_site_value: 5 byte block: 3 dc c1 0 0 	(DW_OP_addr: c1dc)
 <3><1476>: Abbrev Number: 0
 <2><1477>: Abbrev Number: 15 (DW_TAG_GNU_call_site)
    <1478>   DW_AT_low_pc      : 0x8e88	
    <147c>   DW_AT_abstract_origin: <0x16db>	
    <1480>   DW_AT_sibling     : <0x149c>	
 <3><1484>: Abbrev Number: 16 (DW_TAG_GNU_call_site_parameter)
    <1485>   DW_AT_location    : 1 byte block: 53 	(DW_OP_reg3 (r3))
    <1487>   DW_AT_GNU_call_site_value: 7 byte block: 75 a0 1 a ff ff 1a 	(DW_OP_breg5 (r5): 160; DW_OP_const2u: 65535; DW_OP_and)
 <3><148f>: Abbrev Number: 16 (DW_TAG_GNU_call_site_parameter)
    <1490>   DW_AT_location    : 1 byte block: 51 	(DW_OP_reg1 (r1))
    <1492>   DW_AT_GNU_call_site_value: 2 byte block: 8 28 	(DW_OP_const1u: 40)
 <3><1495>: Abbrev Number: 16 (DW_TAG_GNU_call_site_parameter)
    <1496>   DW_AT_location    : 1 byte block: 50 	(DW_OP_reg0 (r0))
    <1498>   DW_AT_GNU_call_site_value: 2 byte block: 76 28 	(DW_OP_breg6 (r6): 40)
 <3><149b>: Abbrev Number: 0
 <2><149c>: Abbrev Number: 15 (DW_TAG_GNU_call_site)
    <149d>   DW_AT_low_pc      : 0x8e9c	
    <14a1>   DW_AT_abstract_origin: <0x16db>	
    <14a5>   DW_AT_sibling     : <0x14c5>	
 <3><14a9>: Abbrev Number: 16 (DW_TAG_GNU_call_site_parameter)
    <14aa>   DW_AT_location    : 1 byte block: 53 	(DW_OP_reg3 (r3))
    <14ac>   DW_AT_GNU_call_site_value: 2 byte block: 78 0 	(DW_OP_breg8 (r8): 0)
 <3><14af>: Abbrev Number: 16 (DW_TAG_GNU_call_site_parameter)
    <14b0>   DW_AT_location    : 1 byte block: 52 	(DW_OP_reg2 (r2))
    <14b2>   DW_AT_GNU_call_site_value: 2 byte block: 74 0 	(DW_OP_breg4 (r4): 0)
 <3><14b5>: Abbrev Number: 16 (DW_TAG_GNU_call_site_parameter)
    <14b6>   DW_AT_location    : 1 byte block: 51 	(DW_OP_reg1 (r1))
    <14b8>   DW_AT_GNU_call_site_value: 2 byte block: 8 64 	(DW_OP_const1u: 100)
 <3><14bb>: Abbrev Number: 16 (DW_TAG_GNU_call_site_parameter)
    <14bc>   DW_AT_location    : 1 byte block: 50 	(DW_OP_reg0 (r0))
    <14be>   DW_AT_GNU_call_site_value: 5 byte block: 3 e8 c1 0 0 	(DW_OP_addr: c1e8)
 <3><14c4>: Abbrev Number: 0
 <2><14c5>: Abbrev Number: 15 (DW_TAG_GNU_call_site)
    <14c6>   DW_AT_low_pc      : 0x8ebc	
    <14ca>   DW_AT_abstract_origin: <0x16db>	
    <14ce>   DW_AT_sibling     : <0x14eb>	
 <3><14d2>: Abbrev Number: 16 (DW_TAG_GNU_call_site_parameter)
    <14d3>   DW_AT_location    : 1 byte block: 53 	(DW_OP_reg3 (r3))
    <14d5>   DW_AT_GNU_call_site_value: 7 byte block: 75 b0 1 a ff ff 1a 	(DW_OP_breg5 (r5): 176; DW_OP_const2u: 65535; DW_OP_and)
 <3><14dd>: Abbrev Number: 16 (DW_TAG_GNU_call_site_parameter)
    <14de>   DW_AT_location    : 1 byte block: 51 	(DW_OP_reg1 (r1))
    <14e0>   DW_AT_GNU_call_site_value: 2 byte block: 8 28 	(DW_OP_const1u: 40)
 <3><14e3>: Abbrev Number: 16 (DW_TAG_GNU_call_site_parameter)
    <14e4>   DW_AT_location    : 1 byte block: 50 	(DW_OP_reg0 (r0))
    <14e6>   DW_AT_GNU_call_site_value: 3 byte block: 76 d0 0 	(DW_OP_breg6 (r6): 80)
 <3><14ea>: Abbrev Number: 0
 <2><14eb>: Abbrev Number: 15 (DW_TAG_GNU_call_site)
    <14ec>   DW_AT_low_pc      : 0x8ed0	
    <14f0>   DW_AT_abstract_origin: <0x16db>	
    <14f4>   DW_AT_sibling     : <0x1514>	
 <3><14f8>: Abbrev Number: 16 (DW_TAG_GNU_call_site_parameter)
    <14f9>   DW_AT_location    : 1 byte block: 53 	(DW_OP_reg3 (r3))
    <14fb>   DW_AT_GNU_call_site_value: 2 byte block: 78 0 	(DW_OP_breg8 (r8): 0)
 <3><14fe>: Abbrev Number: 16 (DW_TAG_GNU_call_site_parameter)
    <14ff>   DW_AT_location    : 1 byte block: 52 	(DW_OP_reg2 (r2))
    <1501>   DW_AT_GNU_call_site_value: 2 byte block: 74 0 	(DW_OP_breg4 (r4): 0)
 <3><1504>: Abbrev Number: 16 (DW_TAG_GNU_call_site_parameter)
    <1505>   DW_AT_location    : 1 byte block: 51 	(DW_OP_reg1 (r1))
    <1507>   DW_AT_GNU_call_site_value: 2 byte block: 8 64 	(DW_OP_const1u: 100)
 <3><150a>: Abbrev Number: 16 (DW_TAG_GNU_call_site_parameter)
    <150b>   DW_AT_location    : 1 byte block: 50 	(DW_OP_reg0 (r0))
    <150d>   DW_AT_GNU_call_site_value: 5 byte block: 3 f8 c1 0 0 	(DW_OP_addr: c1f8)
 <3><1513>: Abbrev Number: 0
 <2><1514>: Abbrev Number: 15 (DW_TAG_GNU_call_site)
    <1515>   DW_AT_low_pc      : 0x8ee8	
    <1519>   DW_AT_abstract_origin: <0x16db>	
    <151d>   DW_AT_sibling     : <0x1535>	
 <3><1521>: Abbrev Number: 16 (DW_TAG_GNU_call_site_parameter)
    <1522>   DW_AT_location    : 1 byte block: 53 	(DW_OP_reg3 (r3))
    <1524>   DW_AT_GNU_call_site_value: 2 byte block: 78 0 	(DW_OP_breg8 (r8): 0)
 <3><1527>: Abbrev Number: 16 (DW_TAG_GNU_call_site_parameter)
    <1528>   DW_AT_location    : 1 byte block: 51 	(DW_OP_reg1 (r1))
    <152a>   DW_AT_GNU_call_site_value: 2 byte block: 8 28 	(DW_OP_const1u: 40)
 <3><152d>: Abbrev Number: 16 (DW_TAG_GNU_call_site_parameter)
    <152e>   DW_AT_location    : 1 byte block: 50 	(DW_OP_reg0 (r0))
    <1530>   DW_AT_GNU_call_site_value: 3 byte block: 76 f8 0 	(DW_OP_breg6 (r6): 120)
 <3><1534>: Abbrev Number: 0
 <2><1535>: Abbrev Number: 15 (DW_TAG_GNU_call_site)
    <1536>   DW_AT_low_pc      : 0x8f08	
    <153a>   DW_AT_abstract_origin: <0x16db>	
    <153e>   DW_AT_sibling     : <0x1563>	
 <3><1542>: Abbrev Number: 16 (DW_TAG_GNU_call_site_parameter)
    <1543>   DW_AT_location    : 1 byte block: 53 	(DW_OP_reg3 (r3))
    <1545>   DW_AT_GNU_call_site_value: 7 byte block: 75 d0 1 a ff ff 1a 	(DW_OP_breg5 (r5): 208; DW_OP_const2u: 65535; DW_OP_and)
 <3><154d>: Abbrev Number: 16 (DW_TAG_GNU_call_site_parameter)
    <154e>   DW_AT_location    : 1 byte block: 52 	(DW_OP_reg2 (r2))
    <1550>   DW_AT_GNU_call_site_value: 2 byte block: 74 0 	(DW_OP_breg4 (r4): 0)
 <3><1553>: Abbrev Number: 16 (DW_TAG_GNU_call_site_parameter)
    <1554>   DW_AT_location    : 1 byte block: 51 	(DW_OP_reg1 (r1))
    <1556>   DW_AT_GNU_call_site_value: 2 byte block: 8 64 	(DW_OP_const1u: 100)
 <3><1559>: Abbrev Number: 16 (DW_TAG_GNU_call_site_parameter)
    <155a>   DW_AT_location    : 1 byte block: 50 	(DW_OP_reg0 (r0))
    <155c>   DW_AT_GNU_call_site_value: 5 byte block: 3 0 c2 0 0 	(DW_OP_addr: c200)
 <3><1562>: Abbrev Number: 0
 <2><1563>: Abbrev Number: 15 (DW_TAG_GNU_call_site)
    <1564>   DW_AT_low_pc      : 0x8f1c	
    <1568>   DW_AT_abstract_origin: <0x16db>	
    <156c>   DW_AT_sibling     : <0x158c>	
 <3><1570>: Abbrev Number: 16 (DW_TAG_GNU_call_site_parameter)
    <1571>   DW_AT_location    : 1 byte block: 53 	(DW_OP_reg3 (r3))
    <1573>   DW_AT_GNU_call_site_value: 2 byte block: 78 0 	(DW_OP_breg8 (r8): 0)
 <3><1576>: Abbrev Number: 16 (DW_TAG_GNU_call_site_parameter)
    <1577>   DW_AT_location    : 1 byte block: 52 	(DW_OP_reg2 (r2))
    <1579>   DW_AT_GNU_call_site_value: 2 byte block: 74 0 	(DW_OP_breg4 (r4): 0)
 <3><157c>: Abbrev Number: 16 (DW_TAG_GNU_call_site_parameter)
    <157d>   DW_AT_location    : 1 byte block: 51 	(DW_OP_reg1 (r1))
    <157f>   DW_AT_GNU_call_site_value: 2 byte block: 8 64 	(DW_OP_const1u: 100)
 <3><1582>: Abbrev Number: 16 (DW_TAG_GNU_call_site_parameter)
    <1583>   DW_AT_location    : 1 byte block: 50 	(DW_OP_reg0 (r0))
    <1585>   DW_AT_GNU_call_site_value: 5 byte block: 3 c c2 0 0 	(DW_OP_addr: c20c)
 <3><158b>: Abbrev Number: 0
 <2><158c>: Abbrev Number: 15 (DW_TAG_GNU_call_site)
    <158d>   DW_AT_low_pc      : 0x8f34	
    <1591>   DW_AT_abstract_origin: <0x16db>	
    <1595>   DW_AT_sibling     : <0x15ad>	
 <3><1599>: Abbrev Number: 16 (DW_TAG_GNU_call_site_parameter)
    <159a>   DW_AT_location    : 1 byte block: 53 	(DW_OP_reg3 (r3))
    <159c>   DW_AT_GNU_call_site_value: 2 byte block: 78 0 	(DW_OP_breg8 (r8): 0)
 <3><159f>: Abbrev Number: 16 (DW_TAG_GNU_call_site_parameter)
    <15a0>   DW_AT_location    : 1 byte block: 51 	(DW_OP_reg1 (r1))
    <15a2>   DW_AT_GNU_call_site_value: 2 byte block: 8 28 	(DW_OP_const1u: 40)
 <3><15a5>: Abbrev Number: 16 (DW_TAG_GNU_call_site_parameter)
    <15a6>   DW_AT_location    : 1 byte block: 50 	(DW_OP_reg0 (r0))
    <15a8>   DW_AT_GNU_call_site_value: 3 byte block: 76 a0 1 	(DW_OP_breg6 (r6): 160)
 <3><15ac>: Abbrev Number: 0
 <2><15ad>: Abbrev Number: 15 (DW_TAG_GNU_call_site)
    <15ae>   DW_AT_low_pc      : 0x8f4c	
    <15b2>   DW_AT_abstract_origin: <0x16db>	
    <15b6>   DW_AT_sibling     : <0x15db>	
 <3><15ba>: Abbrev Number: 16 (DW_TAG_GNU_call_site_parameter)
    <15bb>   DW_AT_location    : 1 byte block: 53 	(DW_OP_reg3 (r3))
    <15bd>   DW_AT_GNU_call_site_value: 7 byte block: 75 80 2 a ff ff 1a 	(DW_OP_breg5 (r5): 256; DW_OP_const2u: 65535; DW_OP_and)
 <3><15c5>: Abbrev Number: 16 (DW_TAG_GNU_call_site_parameter)
    <15c6>   DW_AT_location    : 1 byte block: 52 	(DW_OP_reg2 (r2))
    <15c8>   DW_AT_GNU_call_site_value: 2 byte block: 77 0 	(DW_OP_breg7 (r7): 0)
 <3><15cb>: Abbrev Number: 16 (DW_TAG_GNU_call_site_parameter)
    <15cc>   DW_AT_location    : 1 byte block: 51 	(DW_OP_reg1 (r1))
    <15ce>   DW_AT_GNU_call_site_value: 2 byte block: 8 64 	(DW_OP_const1u: 100)
 <3><15d1>: Abbrev Number: 16 (DW_TAG_GNU_call_site_parameter)
    <15d2>   DW_AT_location    : 1 byte block: 50 	(DW_OP_reg0 (r0))
    <15d4>   DW_AT_GNU_call_site_value: 5 byte block: 3 20 c2 0 0 	(DW_OP_addr: c220)
 <3><15da>: Abbrev Number: 0
 <2><15db>: Abbrev Number: 17 (DW_TAG_GNU_call_site)
    <15dc>   DW_AT_low_pc      : 0x8f68	
    <15e0>   DW_AT_GNU_tail_call: 1	
    <15e0>   DW_AT_abstract_origin: <0x16db>	
 <3><15e4>: Abbrev Number: 16 (DW_TAG_GNU_call_site_parameter)
    <15e5>   DW_AT_location    : 1 byte block: 51 	(DW_OP_reg1 (r1))
    <15e7>   DW_AT_GNU_call_site_value: 2 byte block: 8 64 	(DW_OP_const1u: 100)
 <3><15ea>: Abbrev Number: 16 (DW_TAG_GNU_call_site_parameter)
    <15eb>   DW_AT_location    : 1 byte block: 50 	(DW_OP_reg0 (r0))
    <15ed>   DW_AT_GNU_call_site_value: 5 byte block: 3 2c c2 0 0 	(DW_OP_addr: c22c)
 <3><15f3>: Abbrev Number: 0
 <2><15f4>: Abbrev Number: 0
 <1><15f5>: Abbrev Number: 14 (DW_TAG_subprogram)
    <15f6>   DW_AT_external    : 1	
    <15f6>   DW_AT_name        : (indirect string, offset: 0x12b): bgInit	
    <15fa>   DW_AT_decl_file   : 1	
    <15fb>   DW_AT_decl_line   : 7	
    <15fc>   DW_AT_prototyped  : 1	
    <15fc>   DW_AT_low_pc      : 0x8fa4	
    <1600>   DW_AT_high_pc     : 0x68	
    <1604>   DW_AT_frame_base  : 1 byte block: 9c 	(DW_OP_call_frame_cfa)
    <1606>   DW_AT_GNU_all_call_sites: 1	
    <1606>   DW_AT_sibling     : <0x166a>	
 <2><160a>: Abbrev Number: 18 (DW_TAG_formal_parameter)
    <160b>   DW_AT_name        : (indirect string, offset: 0x49): atagsAddr	
    <160f>   DW_AT_decl_file   : 1	
    <1610>   DW_AT_decl_line   : 7	
    <1611>   DW_AT_type        : <0xd75>	
    <1615>   DW_AT_location    : 0xcf9	(location list)
 <2><1619>: Abbrev Number: 23 (DW_TAG_GNU_call_site)
    <161a>   DW_AT_low_pc      : 0x8fd4	
    <161e>   DW_AT_abstract_origin: <0x16ff>	
 <2><1622>: Abbrev Number: 15 (DW_TAG_GNU_call_site)
    <1623>   DW_AT_low_pc      : 0x8fdc	
    <1627>   DW_AT_abstract_origin: <0xf6e>	
    <162b>   DW_AT_sibling     : <0x1637>	
 <3><162f>: Abbrev Number: 16 (DW_TAG_GNU_call_site_parameter)
    <1630>   DW_AT_location    : 1 byte block: 50 	(DW_OP_reg0 (r0))
    <1632>   DW_AT_GNU_call_site_value: 3 byte block: b 18 c6 	(DW_OP_const2s: -14824)
 <3><1636>: Abbrev Number: 0
 <2><1637>: Abbrev Number: 15 (DW_TAG_GNU_call_site)
    <1638>   DW_AT_low_pc      : 0x8fe4	
    <163c>   DW_AT_abstract_origin: <0x10ef>	
    <1640>   DW_AT_sibling     : <0x164c>	
 <3><1644>: Abbrev Number: 16 (DW_TAG_GNU_call_site_parameter)
    <1645>   DW_AT_location    : 1 byte block: 50 	(DW_OP_reg0 (r0))
    <1647>   DW_AT_GNU_call_site_value: 3 byte block: b e5 af 	(DW_OP_const2s: -20507)
 <3><164b>: Abbrev Number: 0
 <2><164c>: Abbrev Number: 15 (DW_TAG_GNU_call_site)
    <164d>   DW_AT_low_pc      : 0x8fec	
    <1651>   DW_AT_abstract_origin: <0x123c>	
    <1655>   DW_AT_sibling     : <0x1660>	
 <3><1659>: Abbrev Number: 16 (DW_TAG_GNU_call_site_parameter)
    <165a>   DW_AT_location    : 1 byte block: 50 	(DW_OP_reg0 (r0))
    <165c>   DW_AT_GNU_call_site_value: 2 byte block: 75 0 	(DW_OP_breg5 (r5): 0)
 <3><165f>: Abbrev Number: 0
 <2><1660>: Abbrev Number: 23 (DW_TAG_GNU_call_site)
    <1661>   DW_AT_low_pc      : 0x8ff0	
    <1665>   DW_AT_abstract_origin: <0x129d>	
 <2><1669>: Abbrev Number: 0
 <1><166a>: Abbrev Number: 32 (DW_TAG_variable)
    <166b>   DW_AT_name        : (indirect string, offset: 0x505): bgInfo	
    <166f>   DW_AT_decl_file   : 1	
    <1670>   DW_AT_decl_line   : 5	
    <1671>   DW_AT_type        : <0x1675>	
 <1><1675>: Abbrev Number: 33 (DW_TAG_const_type)
    <1676>   DW_AT_type        : <0x167a>	
 <1><167a>: Abbrev Number: 11 (DW_TAG_pointer_type)
    <167b>   DW_AT_byte_size   : 4	
    <167c>   DW_AT_type        : <0x1680>	
 <1><1680>: Abbrev Number: 5 (DW_TAG_volatile_type)
    <1681>   DW_AT_type        : <0xf15>	
 <1><1685>: Abbrev Number: 34 (DW_TAG_variable)
    <1686>   DW_AT_name        : (indirect string, offset: 0x522): BackgroundInfo	
    <168a>   DW_AT_decl_file   : 1	
    <168b>   DW_AT_decl_line   : 3	
    <168c>   DW_AT_type        : <0xd3b>	
    <1690>   DW_AT_external    : 1	
    <1690>   DW_AT_declaration : 1	
 <1><1690>: Abbrev Number: 35 (DW_TAG_subprogram)
    <1691>   DW_AT_external    : 1	
    <1691>   DW_AT_name        : (indirect string, offset: 0x27b): drawCharacter	
    <1695>   DW_AT_decl_file   : 5	
    <1696>   DW_AT_decl_line   : 70	
    <1697>   DW_AT_prototyped  : 1	
    <1697>   DW_AT_type        : <0xd49>	
    <169b>   DW_AT_declaration : 1	
    <169b>   DW_AT_sibling     : <0x16af>	
 <2><169f>: Abbrev Number: 36 (DW_TAG_formal_parameter)
    <16a0>   DW_AT_type        : <0xd54>	
 <2><16a4>: Abbrev Number: 36 (DW_TAG_formal_parameter)
    <16a5>   DW_AT_type        : <0xd75>	
 <2><16a9>: Abbrev Number: 36 (DW_TAG_formal_parameter)
    <16aa>   DW_AT_type        : <0xd75>	
 <2><16ae>: Abbrev Number: 0
 <1><16af>: Abbrev Number: 21 (DW_TAG_subprogram)
    <16b0>   DW_AT_external    : 1	
    <16b0>   DW_AT_name        : (indirect string, offset: 0x385): RPI_GetFrameBufferDescpr	
    <16b4>   DW_AT_decl_file   : 1	
    <16b5>   DW_AT_decl_line   : 100	
    <16b6>   DW_AT_type        : <0xd3b>	
    <16ba>   DW_AT_declaration : 1	
    <16ba>   DW_AT_sibling     : <0x16c0>	
 <2><16be>: Abbrev Number: 22 (DW_TAG_unspecified_parameters)
 <2><16bf>: Abbrev Number: 0
 <1><16c0>: Abbrev Number: 37 (DW_TAG_subprogram)
    <16c1>   DW_AT_external    : 1	
    <16c1>   DW_AT_name        : (indirect string, offset: 0x3d9): setPixel	
    <16c5>   DW_AT_decl_file   : 5	
    <16c6>   DW_AT_decl_line   : 69	
    <16c7>   DW_AT_prototyped  : 1	
    <16c7>   DW_AT_declaration : 1	
    <16c7>   DW_AT_sibling     : <0x16db>	
 <2><16cb>: Abbrev Number: 36 (DW_TAG_formal_parameter)
    <16cc>   DW_AT_type        : <0xd6a>	
 <2><16d0>: Abbrev Number: 36 (DW_TAG_formal_parameter)
    <16d1>   DW_AT_type        : <0xd6a>	
 <2><16d5>: Abbrev Number: 36 (DW_TAG_formal_parameter)
    <16d6>   DW_AT_type        : <0xd5f>	
 <2><16da>: Abbrev Number: 0
 <1><16db>: Abbrev Number: 35 (DW_TAG_subprogram)
    <16dc>   DW_AT_external    : 1	
    <16dc>   DW_AT_name        : (indirect string, offset: 0x254): drawString	
    <16e0>   DW_AT_decl_file   : 5	
    <16e1>   DW_AT_decl_line   : 71	
    <16e2>   DW_AT_prototyped  : 1	
    <16e2>   DW_AT_type        : <0xd49>	
    <16e6>   DW_AT_declaration : 1	
    <16e6>   DW_AT_sibling     : <0x16ff>	
 <2><16ea>: Abbrev Number: 36 (DW_TAG_formal_parameter)
    <16eb>   DW_AT_type        : <0x1297>	
 <2><16ef>: Abbrev Number: 36 (DW_TAG_formal_parameter)
    <16f0>   DW_AT_type        : <0xd75>	
 <2><16f4>: Abbrev Number: 36 (DW_TAG_formal_parameter)
    <16f5>   DW_AT_type        : <0xd75>	
 <2><16f9>: Abbrev Number: 36 (DW_TAG_formal_parameter)
    <16fa>   DW_AT_type        : <0xd75>	
 <2><16fe>: Abbrev Number: 0
 <1><16ff>: Abbrev Number: 38 (DW_TAG_subprogram)
    <1700>   DW_AT_external    : 1	
    <1700>   DW_AT_name        : (indirect string, offset: 0x212): paintEntireScreen	
    <1704>   DW_AT_decl_file   : 5	
    <1705>   DW_AT_decl_line   : 67	
    <1706>   DW_AT_prototyped  : 1	
    <1706>   DW_AT_declaration : 1	
 <2><1706>: Abbrev Number: 36 (DW_TAG_formal_parameter)
    <1707>   DW_AT_type        : <0xd5f>	
 <2><170b>: Abbrev Number: 0
 <1><170c>: Abbrev Number: 0

Contents of the .debug_abbrev section:

  Number TAG (0x0)
   1      DW_TAG_compile_unit    [no children]
    DW_AT_stmt_list    DW_FORM_data4
    DW_AT_low_pc       DW_FORM_addr
    DW_AT_high_pc      DW_FORM_addr
    DW_AT_name         DW_FORM_string
    DW_AT_comp_dir     DW_FORM_string
    DW_AT_producer     DW_FORM_string
    DW_AT_language     DW_FORM_data2
    DW_AT value: 0     DW_FORM value: 0
  Number TAG (0x14)
   1      DW_TAG_compile_unit    [no children]
    DW_AT_stmt_list    DW_FORM_data4
    DW_AT_low_pc       DW_FORM_addr
    DW_AT_high_pc      DW_FORM_addr
    DW_AT_name         DW_FORM_string
    DW_AT_comp_dir     DW_FORM_string
    DW_AT_producer     DW_FORM_string
    DW_AT_language     DW_FORM_data2
    DW_AT value: 0     DW_FORM value: 0
  Number TAG (0x28)
   1      DW_TAG_compile_unit    [no children]
    DW_AT_stmt_list    DW_FORM_data4
    DW_AT_low_pc       DW_FORM_addr
    DW_AT_high_pc      DW_FORM_addr
    DW_AT_name         DW_FORM_string
    DW_AT_comp_dir     DW_FORM_string
    DW_AT_producer     DW_FORM_string
    DW_AT_language     DW_FORM_data2
    DW_AT value: 0     DW_FORM value: 0
  Number TAG (0x3c)
   1      DW_TAG_compile_unit    [has children]
    DW_AT_producer     DW_FORM_strp
    DW_AT_language     DW_FORM_data1
    DW_AT_name         DW_FORM_strp
    DW_AT_comp_dir     DW_FORM_strp
    DW_AT_ranges       DW_FORM_sec_offset
    DW_AT_low_pc       DW_FORM_addr
    DW_AT_stmt_list    DW_FORM_sec_offset
    DW_AT value: 0     DW_FORM value: 0
   2      DW_TAG_base_type    [no children]
    DW_AT_byte_size    DW_FORM_data1
    DW_AT_encoding     DW_FORM_data1
    DW_AT_name         DW_FORM_strp
    DW_AT value: 0     DW_FORM value: 0
   3      DW_TAG_typedef    [no children]
    DW_AT_name         DW_FORM_strp
    DW_AT_decl_file    DW_FORM_data1
    DW_AT_decl_line    DW_FORM_data1
    DW_AT_type         DW_FORM_ref4
    DW_AT value: 0     DW_FORM value: 0
   4      DW_TAG_base_type    [no children]
    DW_AT_byte_size    DW_FORM_data1
    DW_AT_encoding     DW_FORM_data1
    DW_AT_name         DW_FORM_string
    DW_AT value: 0     DW_FORM value: 0
   5      DW_TAG_subprogram    [has children]
    DW_AT_external     DW_FORM_flag_present
    DW_AT_name         DW_FORM_strp
    DW_AT_decl_file    DW_FORM_data1
    DW_AT_decl_line    DW_FORM_data1
    DW_AT_prototyped   DW_FORM_flag_present
    DW_AT_type         DW_FORM_ref4
    DW_AT_low_pc       DW_FORM_addr
    DW_AT_high_pc      DW_FORM_data4
    DW_AT_frame_base   DW_FORM_exprloc
    DW_AT_GNU_all_call_sites DW_FORM_flag_present
    DW_AT_sibling      DW_FORM_ref4
    DW_AT value: 0     DW_FORM value: 0
   6      DW_TAG_formal_parameter    [no children]
    DW_AT_name         DW_FORM_string
    DW_AT_decl_file    DW_FORM_data1
    DW_AT_decl_line    DW_FORM_data1
    DW_AT_type         DW_FORM_ref4
    DW_AT_location     DW_FORM_sec_offset
    DW_AT value: 0     DW_FORM value: 0
   7      DW_TAG_formal_parameter    [no children]
    DW_AT_name         DW_FORM_strp
    DW_AT_decl_file    DW_FORM_data1
    DW_AT_decl_line    DW_FORM_data1
    DW_AT_type         DW_FORM_ref4
    DW_AT_location     DW_FORM_sec_offset
    DW_AT value: 0     DW_FORM value: 0
   8      DW_TAG_subprogram    [has children]
    DW_AT_external     DW_FORM_flag_present
    DW_AT_name         DW_FORM_strp
    DW_AT_decl_file    DW_FORM_data1
    DW_AT_decl_line    DW_FORM_data1
    DW_AT_type         DW_FORM_ref4
    DW_AT_declaration  DW_FORM_flag_present
    DW_AT_sibling      DW_FORM_ref4
    DW_AT value: 0     DW_FORM value: 0
   9      DW_TAG_unspecified_parameters    [no children]
    DW_AT value: 0     DW_FORM value: 0
   10      DW_TAG_lexical_block    [has children]
    DW_AT_low_pc       DW_FORM_addr
    DW_AT_high_pc      DW_FORM_data4
    DW_AT_sibling      DW_FORM_ref4
    DW_AT value: 0     DW_FORM value: 0
   11      DW_TAG_GNU_call_site    [no children]
    DW_AT_low_pc       DW_FORM_addr
    DW_AT_abstract_origin DW_FORM_ref4
    DW_AT value: 0     DW_FORM value: 0
   12      DW_TAG_GNU_call_site    [has children]
    DW_AT_low_pc       DW_FORM_addr
    DW_AT_abstract_origin DW_FORM_ref4
    DW_AT_sibling      DW_FORM_ref4
    DW_AT value: 0     DW_FORM value: 0
   13      DW_TAG_GNU_call_site_parameter    [no children]
    DW_AT_location     DW_FORM_exprloc
    DW_AT_GNU_call_site_value DW_FORM_exprloc
    DW_AT value: 0     DW_FORM value: 0
   14      DW_TAG_GNU_call_site    [has children]
    DW_AT_low_pc       DW_FORM_addr
    DW_AT_abstract_origin DW_FORM_ref4
    DW_AT value: 0     DW_FORM value: 0
   15      DW_TAG_subprogram    [has children]
    DW_AT_external     DW_FORM_flag_present
    DW_AT_name         DW_FORM_strp
    DW_AT_decl_file    DW_FORM_data1
    DW_AT_decl_line    DW_FORM_data1
    DW_AT_declaration  DW_FORM_flag_present
    DW_AT_sibling      DW_FORM_ref4
    DW_AT value: 0     DW_FORM value: 0
   16      DW_TAG_subprogram    [has children]
    DW_AT_external     DW_FORM_flag_present
    DW_AT_name         DW_FORM_strp
    DW_AT_decl_file    DW_FORM_data1
    DW_AT_decl_line    DW_FORM_data1
    DW_AT_prototyped   DW_FORM_flag_present
    DW_AT_declaration  DW_FORM_flag_present
    DW_AT_sibling      DW_FORM_ref4
    DW_AT value: 0     DW_FORM value: 0
   17      DW_TAG_formal_parameter    [no children]
    DW_AT_type         DW_FORM_ref4
    DW_AT value: 0     DW_FORM value: 0
   18      DW_TAG_subprogram    [has children]
    DW_AT_external     DW_FORM_flag_present
    DW_AT_name         DW_FORM_strp
    DW_AT_decl_file    DW_FORM_data1
    DW_AT_decl_line    DW_FORM_data1
    DW_AT_type         DW_FORM_ref4
    DW_AT_declaration  DW_FORM_flag_present
    DW_AT value: 0     DW_FORM value: 0
  Number TAG (0x13b)
   1      DW_TAG_compile_unit    [has children]
    DW_AT_producer     DW_FORM_strp
    DW_AT_language     DW_FORM_data1
    DW_AT_name         DW_FORM_strp
    DW_AT_comp_dir     DW_FORM_strp
    DW_AT_low_pc       DW_FORM_addr
    DW_AT_high_pc      DW_FORM_data4
    DW_AT_stmt_list    DW_FORM_sec_offset
    DW_AT value: 0     DW_FORM value: 0
   2      DW_TAG_subprogram    [no children]
    DW_AT_external     DW_FORM_flag_present
    DW_AT_name         DW_FORM_strp
    DW_AT_decl_file    DW_FORM_data1
    DW_AT_decl_line    DW_FORM_data1
    DW_AT_low_pc       DW_FORM_addr
    DW_AT_high_pc      DW_FORM_data4
    DW_AT_frame_base   DW_FORM_exprloc
    DW_AT_GNU_all_call_sites DW_FORM_flag_present
    DW_AT value: 0     DW_FORM value: 0
   3      DW_TAG_variable    [no children]
    DW_AT_name         DW_FORM_strp
    DW_AT_decl_file    DW_FORM_data1
    DW_AT_decl_line    DW_FORM_data1
    DW_AT_type         DW_FORM_ref4
    DW_AT_const_value  DW_FORM_data4
    DW_AT value: 0     DW_FORM value: 0
   4      DW_TAG_const_type    [no children]
    DW_AT_type         DW_FORM_ref4
    DW_AT value: 0     DW_FORM value: 0
   5      DW_TAG_pointer_type    [no children]
    DW_AT_byte_size    DW_FORM_data1
    DW_AT_type         DW_FORM_ref4
    DW_AT value: 0     DW_FORM value: 0
   6      DW_TAG_volatile_type    [no children]
    DW_AT_type         DW_FORM_ref4
    DW_AT value: 0     DW_FORM value: 0
   7      DW_TAG_base_type    [no children]
    DW_AT_byte_size    DW_FORM_data1
    DW_AT_encoding     DW_FORM_data1
    DW_AT_name         DW_FORM_strp
    DW_AT value: 0     DW_FORM value: 0
  Number TAG (0x196)
   1      DW_TAG_compile_unit    [has children]
    DW_AT_producer     DW_FORM_strp
    DW_AT_language     DW_FORM_data1
    DW_AT_name         DW_FORM_strp
    DW_AT_comp_dir     DW_FORM_strp
    DW_AT_low_pc       DW_FORM_addr
    DW_AT_high_pc      DW_FORM_data4
    DW_AT_stmt_list    DW_FORM_sec_offset
    DW_AT value: 0     DW_FORM value: 0
   2      DW_TAG_base_type    [no children]
    DW_AT_byte_size    DW_FORM_data1
    DW_AT_encoding     DW_FORM_data1
    DW_AT_name         DW_FORM_strp
    DW_AT value: 0     DW_FORM value: 0
   3      DW_TAG_typedef    [no children]
    DW_AT_name         DW_FORM_strp
    DW_AT_decl_file    DW_FORM_data1
    DW_AT_decl_line    DW_FORM_data1
    DW_AT_type         DW_FORM_ref4
    DW_AT value: 0     DW_FORM value: 0
   4      DW_TAG_base_type    [no children]
    DW_AT_byte_size    DW_FORM_data1
    DW_AT_encoding     DW_FORM_data1
    DW_AT_name         DW_FORM_string
    DW_AT value: 0     DW_FORM value: 0
   5      DW_TAG_structure_type    [has children]
    DW_AT_byte_size    DW_FORM_data1
    DW_AT_decl_file    DW_FORM_data1
    DW_AT_decl_line    DW_FORM_data1
    DW_AT_sibling      DW_FORM_ref4
    DW_AT value: 0     DW_FORM value: 0
   6      DW_TAG_member    [no children]
    DW_AT_name         DW_FORM_strp
    DW_AT_decl_file    DW_FORM_data1
    DW_AT_decl_line    DW_FORM_data1
    DW_AT_type         DW_FORM_ref4
    DW_AT_data_member_location DW_FORM_data1
    DW_AT value: 0     DW_FORM value: 0
   7      DW_TAG_volatile_type    [no children]
    DW_AT_type         DW_FORM_ref4
    DW_AT value: 0     DW_FORM value: 0
   8      DW_TAG_subprogram    [no children]
    DW_AT_external     DW_FORM_flag_present
    DW_AT_name         DW_FORM_strp
    DW_AT_decl_file    DW_FORM_data1
    DW_AT_decl_line    DW_FORM_data1
    DW_AT_prototyped   DW_FORM_flag_present
    DW_AT_type         DW_FORM_ref4
    DW_AT_low_pc       DW_FORM_addr
    DW_AT_high_pc      DW_FORM_data4
    DW_AT_frame_base   DW_FORM_exprloc
    DW_AT_GNU_all_call_sites DW_FORM_flag_present
    DW_AT value: 0     DW_FORM value: 0
   9      DW_TAG_pointer_type    [no children]
    DW_AT_byte_size    DW_FORM_data1
    DW_AT_type         DW_FORM_ref4
    DW_AT value: 0     DW_FORM value: 0
   10      DW_TAG_subprogram    [has children]
    DW_AT_external     DW_FORM_flag_present
    DW_AT_name         DW_FORM_strp
    DW_AT_decl_file    DW_FORM_data1
    DW_AT_decl_line    DW_FORM_data1
    DW_AT_prototyped   DW_FORM_flag_present
    DW_AT_low_pc       DW_FORM_addr
    DW_AT_high_pc      DW_FORM_data4
    DW_AT_frame_base   DW_FORM_exprloc
    DW_AT_GNU_all_call_sites DW_FORM_flag_present
    DW_AT_sibling      DW_FORM_ref4
    DW_AT value: 0     DW_FORM value: 0
   11      DW_TAG_formal_parameter    [no children]
    DW_AT_name         DW_FORM_string
    DW_AT_decl_file    DW_FORM_data1
    DW_AT_decl_line    DW_FORM_data1
    DW_AT_type         DW_FORM_ref4
    DW_AT_location     DW_FORM_exprloc
    DW_AT value: 0     DW_FORM value: 0
   12      DW_TAG_variable    [no children]
    DW_AT_name         DW_FORM_string
    DW_AT_decl_file    DW_FORM_data1
    DW_AT_decl_line    DW_FORM_data1
    DW_AT_type         DW_FORM_ref4
    DW_AT_location     DW_FORM_exprloc
    DW_AT value: 0     DW_FORM value: 0
   13      DW_TAG_variable    [no children]
    DW_AT_name         DW_FORM_strp
    DW_AT_decl_file    DW_FORM_data1
    DW_AT_decl_line    DW_FORM_data1
    DW_AT_type         DW_FORM_ref4
    DW_AT_const_value  DW_FORM_data4
    DW_AT value: 0     DW_FORM value: 0
   14      DW_TAG_const_type    [no children]
    DW_AT_type         DW_FORM_ref4
    DW_AT value: 0     DW_FORM value: 0
  Number TAG (0x261)
   1      DW_TAG_compile_unit    [has children]
    DW_AT_producer     DW_FORM_strp
    DW_AT_language     DW_FORM_data1
    DW_AT_name         DW_FORM_strp
    DW_AT_comp_dir     DW_FORM_strp
    DW_AT_low_pc       DW_FORM_addr
    DW_AT_high_pc      DW_FORM_data4
    DW_AT_stmt_list    DW_FORM_sec_offset
    DW_AT value: 0     DW_FORM value: 0
   2      DW_TAG_typedef    [no children]
    DW_AT_name         DW_FORM_strp
    DW_AT_decl_file    DW_FORM_data1
    DW_AT_decl_line    DW_FORM_data1
    DW_AT_type         DW_FORM_ref4
    DW_AT value: 0     DW_FORM value: 0
   3      DW_TAG_base_type    [no children]
    DW_AT_byte_size    DW_FORM_data1
    DW_AT_encoding     DW_FORM_data1
    DW_AT_name         DW_FORM_strp
    DW_AT value: 0     DW_FORM value: 0
   4      DW_TAG_base_type    [no children]
    DW_AT_byte_size    DW_FORM_data1
    DW_AT_encoding     DW_FORM_data1
    DW_AT_name         DW_FORM_string
    DW_AT value: 0     DW_FORM value: 0
   5      DW_TAG_structure_type    [has children]
    DW_AT_byte_size    DW_FORM_data1
    DW_AT_decl_file    DW_FORM_data1
    DW_AT_decl_line    DW_FORM_data1
    DW_AT_sibling      DW_FORM_ref4
    DW_AT value: 0     DW_FORM value: 0
   6      DW_TAG_member    [no children]
    DW_AT_name         DW_FORM_strp
    DW_AT_decl_file    DW_FORM_data1
    DW_AT_decl_line    DW_FORM_data1
    DW_AT_type         DW_FORM_ref4
    DW_AT_data_member_location DW_FORM_data1
    DW_AT value: 0     DW_FORM value: 0
   7      DW_TAG_member    [no children]
    DW_AT_name         DW_FORM_string
    DW_AT_decl_file    DW_FORM_data1
    DW_AT_decl_line    DW_FORM_data1
    DW_AT_type         DW_FORM_ref4
    DW_AT_data_member_location DW_FORM_data1
    DW_AT value: 0     DW_FORM value: 0
   8      DW_TAG_volatile_type    [no children]
    DW_AT_type         DW_FORM_ref4
    DW_AT value: 0     DW_FORM value: 0
   9      DW_TAG_subprogram    [has children]
    DW_AT_external     DW_FORM_flag_present
    DW_AT_name         DW_FORM_strp
    DW_AT_decl_file    DW_FORM_data1
    DW_AT_decl_line    DW_FORM_data1
    DW_AT_prototyped   DW_FORM_flag_present
    DW_AT_inline       DW_FORM_data1
    DW_AT_sibling      DW_FORM_ref4
    DW_AT value: 0     DW_FORM value: 0
   10      DW_TAG_formal_parameter    [no children]
    DW_AT_name         DW_FORM_strp
    DW_AT_decl_file    DW_FORM_data1
    DW_AT_decl_line    DW_FORM_data1
    DW_AT_type         DW_FORM_ref4
    DW_AT value: 0     DW_FORM value: 0
   11      DW_TAG_variable    [no children]
    DW_AT_name         DW_FORM_string
    DW_AT_decl_file    DW_FORM_data1
    DW_AT_decl_line    DW_FORM_data1
    DW_AT_type         DW_FORM_ref4
    DW_AT value: 0     DW_FORM value: 0
   12      DW_TAG_variable    [no children]
    DW_AT_name         DW_FORM_strp
    DW_AT_decl_file    DW_FORM_data1
    DW_AT_decl_line    DW_FORM_data1
    DW_AT_type         DW_FORM_ref4
    DW_AT value: 0     DW_FORM value: 0
   13      DW_TAG_pointer_type    [no children]
    DW_AT_byte_size    DW_FORM_data1
    DW_AT_type         DW_FORM_ref4
    DW_AT value: 0     DW_FORM value: 0
   14      DW_TAG_subprogram    [no children]
    DW_AT_external     DW_FORM_flag_present
    DW_AT_name         DW_FORM_strp
    DW_AT_decl_file    DW_FORM_data1
    DW_AT_decl_line    DW_FORM_data1
    DW_AT_prototyped   DW_FORM_flag_present
    DW_AT_type         DW_FORM_ref4
    DW_AT_low_pc       DW_FORM_addr
    DW_AT_high_pc      DW_FORM_data4
    DW_AT_frame_base   DW_FORM_exprloc
    DW_AT_GNU_all_call_sites DW_FORM_flag_present
    DW_AT value: 0     DW_FORM value: 0
   15      DW_TAG_subprogram    [has children]
    DW_AT_external     DW_FORM_flag_present
    DW_AT_name         DW_FORM_strp
    DW_AT_decl_file    DW_FORM_data1
    DW_AT_decl_line    DW_FORM_data1
    DW_AT_prototyped   DW_FORM_flag_present
    DW_AT_low_pc       DW_FORM_addr
    DW_AT_high_pc      DW_FORM_data4
    DW_AT_frame_base   DW_FORM_exprloc
    DW_AT_GNU_all_call_sites DW_FORM_flag_present
    DW_AT_sibling      DW_FORM_ref4
    DW_AT value: 0     DW_FORM value: 0
   16      DW_TAG_formal_parameter    [no children]
    DW_AT_name         DW_FORM_strp
    DW_AT_decl_file    DW_FORM_data1
    DW_AT_decl_line    DW_FORM_data1
    DW_AT_type         DW_FORM_ref4
    DW_AT_location     DW_FORM_exprloc
    DW_AT value: 0     DW_FORM value: 0
   17      DW_TAG_variable    [no children]
    DW_AT_name         DW_FORM_strp
    DW_AT_decl_file    DW_FORM_data1
    DW_AT_decl_line    DW_FORM_data1
    DW_AT_type         DW_FORM_ref4
    DW_AT_location     DW_FORM_exprloc
    DW_AT value: 0     DW_FORM value: 0
   18      DW_TAG_variable    [no children]
    DW_AT_name         DW_FORM_string
    DW_AT_decl_file    DW_FORM_data1
    DW_AT_decl_line    DW_FORM_data1
    DW_AT_type         DW_FORM_ref4
    DW_AT_location     DW_FORM_sec_offset
    DW_AT value: 0     DW_FORM value: 0
   19      DW_TAG_formal_parameter    [no children]
    DW_AT_name         DW_FORM_string
    DW_AT_decl_file    DW_FORM_data1
    DW_AT_decl_line    DW_FORM_data1
    DW_AT_type         DW_FORM_ref4
    DW_AT_location     DW_FORM_sec_offset
    DW_AT value: 0     DW_FORM value: 0
   20      DW_TAG_inlined_subroutine    [has children]
    DW_AT_abstract_origin DW_FORM_ref4
    DW_AT_entry_pc     DW_FORM_addr
    DW_AT_ranges       DW_FORM_sec_offset
    DW_AT_call_file    DW_FORM_data1
    DW_AT_call_line    DW_FORM_data1
    DW_AT value: 0     DW_FORM value: 0
   21      DW_TAG_formal_parameter    [no children]
    DW_AT_abstract_origin DW_FORM_ref4
    DW_AT value: 0     DW_FORM value: 0
   22      DW_TAG_formal_parameter    [no children]
    DW_AT_abstract_origin DW_FORM_ref4
    DW_AT_location     DW_FORM_sec_offset
    DW_AT value: 0     DW_FORM value: 0
   23      DW_TAG_lexical_block    [has children]
    DW_AT_ranges       DW_FORM_sec_offset
    DW_AT value: 0     DW_FORM value: 0
   24      DW_TAG_variable    [no children]
    DW_AT_abstract_origin DW_FORM_ref4
    DW_AT_location     DW_FORM_sec_offset
    DW_AT value: 0     DW_FORM value: 0
   25      DW_TAG_subprogram    [has children]
    DW_AT_abstract_origin DW_FORM_ref4
    DW_AT_low_pc       DW_FORM_addr
    DW_AT_high_pc      DW_FORM_data4
    DW_AT_frame_base   DW_FORM_exprloc
    DW_AT_GNU_all_call_sites DW_FORM_flag_present
    DW_AT_sibling      DW_FORM_ref4
    DW_AT value: 0     DW_FORM value: 0
   26      DW_TAG_formal_parameter    [no children]
    DW_AT_abstract_origin DW_FORM_ref4
    DW_AT_location     DW_FORM_exprloc
    DW_AT value: 0     DW_FORM value: 0
   27      DW_TAG_subprogram    [has children]
    DW_AT_external     DW_FORM_flag_present
    DW_AT_name         DW_FORM_strp
    DW_AT_decl_file    DW_FORM_data1
    DW_AT_decl_line    DW_FORM_data1
    DW_AT_prototyped   DW_FORM_flag_present
    DW_AT_type         DW_FORM_ref4
    DW_AT_low_pc       DW_FORM_addr
    DW_AT_high_pc      DW_FORM_data4
    DW_AT_frame_base   DW_FORM_exprloc
    DW_AT_GNU_all_call_sites DW_FORM_flag_present
    DW_AT_sibling      DW_FORM_ref4
    DW_AT value: 0     DW_FORM value: 0
   28      DW_TAG_formal_parameter    [no children]
    DW_AT_name         DW_FORM_strp
    DW_AT_decl_file    DW_FORM_data1
    DW_AT_decl_line    DW_FORM_data1
    DW_AT_type         DW_FORM_ref4
    DW_AT_location     DW_FORM_sec_offset
    DW_AT value: 0     DW_FORM value: 0
   29      DW_TAG_formal_parameter    [no children]
    DW_AT_name         DW_FORM_string
    DW_AT_decl_file    DW_FORM_data1
    DW_AT_decl_line    DW_FORM_data1
    DW_AT_type         DW_FORM_ref4
    DW_AT_location     DW_FORM_exprloc
    DW_AT value: 0     DW_FORM value: 0
   30      DW_TAG_variable    [no children]
    DW_AT_name         DW_FORM_strp
    DW_AT_decl_file    DW_FORM_data1
    DW_AT_decl_line    DW_FORM_data1
    DW_AT_type         DW_FORM_ref4
    DW_AT_location     DW_FORM_sec_offset
    DW_AT value: 0     DW_FORM value: 0
   31      DW_TAG_variable    [no children]
    DW_AT_abstract_origin DW_FORM_ref4
    DW_AT value: 0     DW_FORM value: 0
   32      DW_TAG_GNU_call_site    [no children]
    DW_AT_low_pc       DW_FORM_addr
    DW_AT_abstract_origin DW_FORM_ref4
    DW_AT value: 0     DW_FORM value: 0
   33      DW_TAG_const_type    [no children]
    DW_AT_type         DW_FORM_ref4
    DW_AT value: 0     DW_FORM value: 0
   34      DW_TAG_variable    [no children]
    DW_AT_name         DW_FORM_strp
    DW_AT_decl_file    DW_FORM_data1
    DW_AT_decl_line    DW_FORM_data1
    DW_AT_type         DW_FORM_ref4
    DW_AT_const_value  DW_FORM_data4
    DW_AT value: 0     DW_FORM value: 0
   35      DW_TAG_variable    [no children]
    DW_AT_name         DW_FORM_strp
    DW_AT_decl_file    DW_FORM_data1
    DW_AT_decl_line    DW_FORM_data1
    DW_AT_type         DW_FORM_ref4
    DW_AT_external     DW_FORM_flag_present
    DW_AT_declaration  DW_FORM_flag_present
    DW_AT value: 0     DW_FORM value: 0
  Number TAG (0x449)
   1      DW_TAG_compile_unit    [has children]
    DW_AT_producer     DW_FORM_strp
    DW_AT_language     DW_FORM_data1
    DW_AT_name         DW_FORM_strp
    DW_AT_comp_dir     DW_FORM_strp
    DW_AT_low_pc       DW_FORM_addr
    DW_AT_high_pc      DW_FORM_data4
    DW_AT_stmt_list    DW_FORM_sec_offset
    DW_AT value: 0     DW_FORM value: 0
   2      DW_TAG_typedef    [no children]
    DW_AT_name         DW_FORM_strp
    DW_AT_decl_file    DW_FORM_data1
    DW_AT_decl_line    DW_FORM_data1
    DW_AT_type         DW_FORM_ref4
    DW_AT value: 0     DW_FORM value: 0
   3      DW_TAG_base_type    [no children]
    DW_AT_byte_size    DW_FORM_data1
    DW_AT_encoding     DW_FORM_data1
    DW_AT_name         DW_FORM_strp
    DW_AT value: 0     DW_FORM value: 0
   4      DW_TAG_base_type    [no children]
    DW_AT_byte_size    DW_FORM_data1
    DW_AT_encoding     DW_FORM_data1
    DW_AT_name         DW_FORM_string
    DW_AT value: 0     DW_FORM value: 0
   5      DW_TAG_subprogram    [has children]
    DW_AT_external     DW_FORM_flag_present
    DW_AT_name         DW_FORM_strp
    DW_AT_decl_file    DW_FORM_data1
    DW_AT_decl_line    DW_FORM_data1
    DW_AT_prototyped   DW_FORM_flag_present
    DW_AT_type         DW_FORM_ref4
    DW_AT_inline       DW_FORM_data1
    DW_AT_sibling      DW_FORM_ref4
    DW_AT value: 0     DW_FORM value: 0
   6      DW_TAG_formal_parameter    [no children]
    DW_AT_name         DW_FORM_string
    DW_AT_decl_file    DW_FORM_data1
    DW_AT_decl_line    DW_FORM_data1
    DW_AT_type         DW_FORM_ref4
    DW_AT value: 0     DW_FORM value: 0
   7      DW_TAG_variable    [no children]
    DW_AT_name         DW_FORM_strp
    DW_AT_decl_file    DW_FORM_data1
    DW_AT_decl_line    DW_FORM_data1
    DW_AT_type         DW_FORM_ref4
    DW_AT value: 0     DW_FORM value: 0
   8      DW_TAG_pointer_type    [no children]
    DW_AT_byte_size    DW_FORM_data1
    DW_AT_type         DW_FORM_ref4
    DW_AT value: 0     DW_FORM value: 0
   9      DW_TAG_subprogram    [has children]
    DW_AT_external     DW_FORM_flag_present
    DW_AT_name         DW_FORM_strp
    DW_AT_decl_file    DW_FORM_data1
    DW_AT_decl_line    DW_FORM_data1
    DW_AT_prototyped   DW_FORM_flag_present
    DW_AT_type         DW_FORM_ref4
    DW_AT_low_pc       DW_FORM_addr
    DW_AT_high_pc      DW_FORM_data4
    DW_AT_frame_base   DW_FORM_exprloc
    DW_AT_GNU_all_tail_call_sites DW_FORM_flag_present
    DW_AT_sibling      DW_FORM_ref4
    DW_AT value: 0     DW_FORM value: 0
   10      DW_TAG_formal_parameter    [no children]
    DW_AT_name         DW_FORM_string
    DW_AT_decl_file    DW_FORM_data1
    DW_AT_decl_line    DW_FORM_data1
    DW_AT_type         DW_FORM_ref4
    DW_AT_location     DW_FORM_sec_offset
    DW_AT value: 0     DW_FORM value: 0
   11      DW_TAG_formal_parameter    [no children]
    DW_AT_name         DW_FORM_strp
    DW_AT_decl_file    DW_FORM_data1
    DW_AT_decl_line    DW_FORM_data1
    DW_AT_type         DW_FORM_ref4
    DW_AT_location     DW_FORM_sec_offset
    DW_AT value: 0     DW_FORM value: 0
   12      DW_TAG_variable    [no children]
    DW_AT_name         DW_FORM_strp
    DW_AT_decl_file    DW_FORM_data1
    DW_AT_decl_line    DW_FORM_data1
    DW_AT_type         DW_FORM_ref4
    DW_AT_location     DW_FORM_sec_offset
    DW_AT value: 0     DW_FORM value: 0
   13      DW_TAG_variable    [no children]
    DW_AT_name         DW_FORM_string
    DW_AT_decl_file    DW_FORM_data1
    DW_AT_decl_line    DW_FORM_data1
    DW_AT_type         DW_FORM_ref4
    DW_AT_location     DW_FORM_sec_offset
    DW_AT value: 0     DW_FORM value: 0
   14      DW_TAG_inlined_subroutine    [has children]
    DW_AT_abstract_origin DW_FORM_ref4
    DW_AT_low_pc       DW_FORM_addr
    DW_AT_high_pc      DW_FORM_data4
    DW_AT_call_file    DW_FORM_data1
    DW_AT_call_line    DW_FORM_data1
    DW_AT value: 0     DW_FORM value: 0
   15      DW_TAG_formal_parameter    [no children]
    DW_AT_abstract_origin DW_FORM_ref4
    DW_AT value: 0     DW_FORM value: 0
   16      DW_TAG_lexical_block    [has children]
    DW_AT_low_pc       DW_FORM_addr
    DW_AT_high_pc      DW_FORM_data4
    DW_AT value: 0     DW_FORM value: 0
   17      DW_TAG_variable    [no children]
    DW_AT_abstract_origin DW_FORM_ref4
    DW_AT_location     DW_FORM_sec_offset
    DW_AT value: 0     DW_FORM value: 0
   18      DW_TAG_subprogram    [has children]
    DW_AT_abstract_origin DW_FORM_ref4
    DW_AT_low_pc       DW_FORM_addr
    DW_AT_high_pc      DW_FORM_data4
    DW_AT_frame_base   DW_FORM_exprloc
    DW_AT_GNU_all_call_sites DW_FORM_flag_present
    DW_AT_sibling      DW_FORM_ref4
    DW_AT value: 0     DW_FORM value: 0
   19      DW_TAG_formal_parameter    [no children]
    DW_AT_abstract_origin DW_FORM_ref4
    DW_AT_location     DW_FORM_sec_offset
    DW_AT value: 0     DW_FORM value: 0
   20      DW_TAG_subprogram    [has children]
    DW_AT_external     DW_FORM_flag_present
    DW_AT_name         DW_FORM_strp
    DW_AT_decl_file    DW_FORM_data1
    DW_AT_decl_line    DW_FORM_data1
    DW_AT_prototyped   DW_FORM_flag_present
    DW_AT_type         DW_FORM_ref4
    DW_AT_low_pc       DW_FORM_addr
    DW_AT_high_pc      DW_FORM_data4
    DW_AT_frame_base   DW_FORM_exprloc
    DW_AT_GNU_all_call_sites DW_FORM_flag_present
    DW_AT_sibling      DW_FORM_ref4
    DW_AT value: 0     DW_FORM value: 0
   21      DW_TAG_const_type    [no children]
    DW_AT_type         DW_FORM_ref4
    DW_AT value: 0     DW_FORM value: 0
   22      DW_TAG_variable    [no children]
    DW_AT_name         DW_FORM_strp
    DW_AT_decl_file    DW_FORM_data1
    DW_AT_decl_line    DW_FORM_data1
    DW_AT_type         DW_FORM_ref4
    DW_AT_location     DW_FORM_exprloc
    DW_AT value: 0     DW_FORM value: 0
  Number TAG (0x585)
   1      DW_TAG_compile_unit    [has children]
    DW_AT_producer     DW_FORM_strp
    DW_AT_language     DW_FORM_data1
    DW_AT_name         DW_FORM_strp
    DW_AT_comp_dir     DW_FORM_strp
    DW_AT_low_pc       DW_FORM_addr
    DW_AT_high_pc      DW_FORM_data4
    DW_AT_stmt_list    DW_FORM_sec_offset
    DW_AT value: 0     DW_FORM value: 0
   2      DW_TAG_typedef    [no children]
    DW_AT_name         DW_FORM_strp
    DW_AT_decl_file    DW_FORM_data1
    DW_AT_decl_line    DW_FORM_data1
    DW_AT_type         DW_FORM_ref4
    DW_AT value: 0     DW_FORM value: 0
   3      DW_TAG_base_type    [no children]
    DW_AT_byte_size    DW_FORM_data1
    DW_AT_encoding     DW_FORM_data1
    DW_AT_name         DW_FORM_strp
    DW_AT value: 0     DW_FORM value: 0
   4      DW_TAG_base_type    [no children]
    DW_AT_byte_size    DW_FORM_data1
    DW_AT_encoding     DW_FORM_data1
    DW_AT_name         DW_FORM_string
    DW_AT value: 0     DW_FORM value: 0
   5      DW_TAG_volatile_type    [no children]
    DW_AT_type         DW_FORM_ref4
    DW_AT value: 0     DW_FORM value: 0
   6      DW_TAG_structure_type    [has children]
    DW_AT_name         DW_FORM_strp
    DW_AT_byte_size    DW_FORM_data1
    DW_AT_decl_file    DW_FORM_data1
    DW_AT_decl_line    DW_FORM_data1
    DW_AT_sibling      DW_FORM_ref4
    DW_AT value: 0     DW_FORM value: 0
   7      DW_TAG_member    [no children]
    DW_AT_name         DW_FORM_strp
    DW_AT_decl_file    DW_FORM_data1
    DW_AT_decl_line    DW_FORM_data1
    DW_AT_type         DW_FORM_ref4
    DW_AT_data_member_location DW_FORM_data1
    DW_AT value: 0     DW_FORM value: 0
   8      DW_TAG_member    [no children]
    DW_AT_name         DW_FORM_string
    DW_AT_decl_file    DW_FORM_data1
    DW_AT_decl_line    DW_FORM_data1
    DW_AT_type         DW_FORM_ref4
    DW_AT_data_member_location DW_FORM_data1
    DW_AT value: 0     DW_FORM value: 0
   9      DW_TAG_structure_type    [has children]
    DW_AT_byte_size    DW_FORM_data1
    DW_AT_decl_file    DW_FORM_data1
    DW_AT_decl_line    DW_FORM_data1
    DW_AT_sibling      DW_FORM_ref4
    DW_AT value: 0     DW_FORM value: 0
   10      DW_TAG_structure_type    [has children]
    DW_AT_byte_size    DW_FORM_data2
    DW_AT_decl_file    DW_FORM_data1
    DW_AT_decl_line    DW_FORM_data1
    DW_AT_sibling      DW_FORM_ref4
    DW_AT value: 0     DW_FORM value: 0
   11      DW_TAG_pointer_type    [no children]
    DW_AT_byte_size    DW_FORM_data1
    DW_AT_type         DW_FORM_ref4
    DW_AT value: 0     DW_FORM value: 0
   12      DW_TAG_array_type    [has children]
    DW_AT_type         DW_FORM_ref4
    DW_AT_sibling      DW_FORM_ref4
    DW_AT value: 0     DW_FORM value: 0
   13      DW_TAG_subrange_type    [no children]
    DW_AT_type         DW_FORM_ref4
    DW_AT_upper_bound  DW_FORM_data1
    DW_AT value: 0     DW_FORM value: 0
   14      DW_TAG_subprogram    [has children]
    DW_AT_external     DW_FORM_flag_present
    DW_AT_name         DW_FORM_strp
    DW_AT_decl_file    DW_FORM_data1
    DW_AT_decl_line    DW_FORM_data1
    DW_AT_prototyped   DW_FORM_flag_present
    DW_AT_low_pc       DW_FORM_addr
    DW_AT_high_pc      DW_FORM_data4
    DW_AT_frame_base   DW_FORM_exprloc
    DW_AT_GNU_all_call_sites DW_FORM_flag_present
    DW_AT_sibling      DW_FORM_ref4
    DW_AT value: 0     DW_FORM value: 0
   15      DW_TAG_GNU_call_site    [has children]
    DW_AT_low_pc       DW_FORM_addr
    DW_AT_abstract_origin DW_FORM_ref4
    DW_AT_sibling      DW_FORM_ref4
    DW_AT value: 0     DW_FORM value: 0
   16      DW_TAG_GNU_call_site_parameter    [no children]
    DW_AT_location     DW_FORM_exprloc
    DW_AT_GNU_call_site_value DW_FORM_exprloc
    DW_AT value: 0     DW_FORM value: 0
   17      DW_TAG_GNU_call_site    [has children]
    DW_AT_low_pc       DW_FORM_addr
    DW_AT_GNU_tail_call DW_FORM_flag_present
    DW_AT_abstract_origin DW_FORM_ref4
    DW_AT value: 0     DW_FORM value: 0
   18      DW_TAG_formal_parameter    [no children]
    DW_AT_name         DW_FORM_strp
    DW_AT_decl_file    DW_FORM_data1
    DW_AT_decl_line    DW_FORM_data1
    DW_AT_type         DW_FORM_ref4
    DW_AT_location     DW_FORM_sec_offset
    DW_AT value: 0     DW_FORM value: 0
   19      DW_TAG_variable    [no children]
    DW_AT_name         DW_FORM_string
    DW_AT_decl_file    DW_FORM_data1
    DW_AT_decl_line    DW_FORM_data1
    DW_AT_type         DW_FORM_ref4
    DW_AT_location     DW_FORM_sec_offset
    DW_AT value: 0     DW_FORM value: 0
   20      DW_TAG_variable    [no children]
    DW_AT_name         DW_FORM_strp
    DW_AT_decl_file    DW_FORM_data1
    DW_AT_decl_line    DW_FORM_data1
    DW_AT_type         DW_FORM_ref4
    DW_AT_location     DW_FORM_exprloc
    DW_AT value: 0     DW_FORM value: 0
   21      DW_TAG_subprogram    [has children]
    DW_AT_external     DW_FORM_flag_present
    DW_AT_name         DW_FORM_strp
    DW_AT_decl_file    DW_FORM_data1
    DW_AT_decl_line    DW_FORM_data1
    DW_AT_type         DW_FORM_ref4
    DW_AT_declaration  DW_FORM_flag_present
    DW_AT_sibling      DW_FORM_ref4
    DW_AT value: 0     DW_FORM value: 0
   22      DW_TAG_unspecified_parameters    [no children]
    DW_AT value: 0     DW_FORM value: 0
   23      DW_TAG_GNU_call_site    [no children]
    DW_AT_low_pc       DW_FORM_addr
    DW_AT_abstract_origin DW_FORM_ref4
    DW_AT value: 0     DW_FORM value: 0
   24      DW_TAG_GNU_call_site    [has children]
    DW_AT_low_pc       DW_FORM_addr
    DW_AT_abstract_origin DW_FORM_ref4
    DW_AT value: 0     DW_FORM value: 0
   25      DW_TAG_subprogram    [has children]
    DW_AT_external     DW_FORM_flag_present
    DW_AT_name         DW_FORM_strp
    DW_AT_decl_file    DW_FORM_data1
    DW_AT_decl_line    DW_FORM_data1
    DW_AT_prototyped   DW_FORM_flag_present
    DW_AT_low_pc       DW_FORM_addr
    DW_AT_high_pc      DW_FORM_data4
    DW_AT_frame_base   DW_FORM_exprloc
    DW_AT_sibling      DW_FORM_ref4
    DW_AT value: 0     DW_FORM value: 0
   26      DW_TAG_formal_parameter    [no children]
    DW_AT_name         DW_FORM_strp
    DW_AT_decl_file    DW_FORM_data1
    DW_AT_decl_line    DW_FORM_data1
    DW_AT_type         DW_FORM_ref4
    DW_AT_location     DW_FORM_exprloc
    DW_AT value: 0     DW_FORM value: 0
   27      DW_TAG_variable    [no children]
    DW_AT_name         DW_FORM_string
    DW_AT_decl_file    DW_FORM_data1
    DW_AT_decl_line    DW_FORM_data1
    DW_AT_type         DW_FORM_ref4
    DW_AT_location     DW_FORM_exprloc
    DW_AT value: 0     DW_FORM value: 0
   28      DW_TAG_variable    [no children]
    DW_AT_name         DW_FORM_string
    DW_AT_decl_file    DW_FORM_data1
    DW_AT_decl_line    DW_FORM_data1
    DW_AT_type         DW_FORM_ref4
    DW_AT value: 0     DW_FORM value: 0
   29      DW_TAG_subprogram    [has children]
    DW_AT_external     DW_FORM_flag_present
    DW_AT_name         DW_FORM_strp
    DW_AT_decl_file    DW_FORM_data1
    DW_AT_decl_line    DW_FORM_data2
    DW_AT_prototyped   DW_FORM_flag_present
    DW_AT_low_pc       DW_FORM_addr
    DW_AT_high_pc      DW_FORM_data4
    DW_AT_frame_base   DW_FORM_exprloc
    DW_AT_GNU_all_call_sites DW_FORM_flag_present
    DW_AT_sibling      DW_FORM_ref4
    DW_AT value: 0     DW_FORM value: 0
   30      DW_TAG_variable    [no children]
    DW_AT_name         DW_FORM_strp
    DW_AT_decl_file    DW_FORM_data1
    DW_AT_decl_line    DW_FORM_data2
    DW_AT_type         DW_FORM_ref4
    DW_AT_location     DW_FORM_sec_offset
    DW_AT value: 0     DW_FORM value: 0
   31      DW_TAG_variable    [no children]
    DW_AT_name         DW_FORM_string
    DW_AT_decl_file    DW_FORM_data1
    DW_AT_decl_line    DW_FORM_data2
    DW_AT_type         DW_FORM_ref4
    DW_AT_location     DW_FORM_sec_offset
    DW_AT value: 0     DW_FORM value: 0
   32      DW_TAG_variable    [no children]
    DW_AT_name         DW_FORM_strp
    DW_AT_decl_file    DW_FORM_data1
    DW_AT_decl_line    DW_FORM_data1
    DW_AT_type         DW_FORM_ref4
    DW_AT value: 0     DW_FORM value: 0
   33      DW_TAG_const_type    [no children]
    DW_AT_type         DW_FORM_ref4
    DW_AT value: 0     DW_FORM value: 0
   34      DW_TAG_variable    [no children]
    DW_AT_name         DW_FORM_strp
    DW_AT_decl_file    DW_FORM_data1
    DW_AT_decl_line    DW_FORM_data1
    DW_AT_type         DW_FORM_ref4
    DW_AT_external     DW_FORM_flag_present
    DW_AT_declaration  DW_FORM_flag_present
    DW_AT value: 0     DW_FORM value: 0
   35      DW_TAG_subprogram    [has children]
    DW_AT_external     DW_FORM_flag_present
    DW_AT_name         DW_FORM_strp
    DW_AT_decl_file    DW_FORM_data1
    DW_AT_decl_line    DW_FORM_data1
    DW_AT_prototyped   DW_FORM_flag_present
    DW_AT_type         DW_FORM_ref4
    DW_AT_declaration  DW_FORM_flag_present
    DW_AT_sibling      DW_FORM_ref4
    DW_AT value: 0     DW_FORM value: 0
   36      DW_TAG_formal_parameter    [no children]
    DW_AT_type         DW_FORM_ref4
    DW_AT value: 0     DW_FORM value: 0
   37      DW_TAG_subprogram    [has children]
    DW_AT_external     DW_FORM_flag_present
    DW_AT_name         DW_FORM_strp
    DW_AT_decl_file    DW_FORM_data1
    DW_AT_decl_line    DW_FORM_data1
    DW_AT_prototyped   DW_FORM_flag_present
    DW_AT_declaration  DW_FORM_flag_present
    DW_AT_sibling      DW_FORM_ref4
    DW_AT value: 0     DW_FORM value: 0
   38      DW_TAG_subprogram    [has children]
    DW_AT_external     DW_FORM_flag_present
    DW_AT_name         DW_FORM_strp
    DW_AT_decl_file    DW_FORM_data1
    DW_AT_decl_line    DW_FORM_data1
    DW_AT_prototyped   DW_FORM_flag_present
    DW_AT_declaration  DW_FORM_flag_present
    DW_AT value: 0     DW_FORM value: 0

Contents of the .debug_aranges section:

  Length:                   28
  Version:                  2
  Offset into .debug_info:  0x0
  Pointer Size:             4
  Segment Size:             0

    Address    Length
    00008000 00000020 
    00000000 00000000 
  Length:                   28
  Version:                  2
  Offset into .debug_info:  0x61
  Pointer Size:             4
  Segment Size:             0

    Address    Length
    0000805c 000000d0 
    00000000 00000000 
  Length:                   28
  Version:                  2
  Offset into .debug_info:  0xcc
  Pointer Size:             4
  Segment Size:             0

    Address    Length
    0000812c 0000003c 
    00000000 00000000 
  Length:                   28
  Version:                  2
  Offset into .debug_info:  0x132
  Pointer Size:             4
  Segment Size:             0

    Address    Length
    00008020 0000003c 
    00000000 00000000 
  Length:                   28
  Version:                  2
  Offset into .debug_info:  0x2ed
  Pointer Size:             4
  Segment Size:             0

    Address    Length
    00008168 00000040 
    00000000 00000000 
  Length:                   28
  Version:                  2
  Offset into .debug_info:  0x36c
  Pointer Size:             4
  Segment Size:             0

    Address    Length
    000081a8 0000003c 
    00000000 00000000 
  Length:                   28
  Version:                  2
  Offset into .debug_info:  0x4b9
  Pointer Size:             4
  Segment Size:             0

    Address    Length
    000081e4 000002e0 
    00000000 00000000 
  Length:                   28
  Version:                  2
  Offset into .debug_info:  0x9f5
  Pointer Size:             4
  Segment Size:             0

    Address    Length
    000084c4 00000228 
    00000000 00000000 
  Length:                   28
  Version:                  2
  Offset into .debug_info:  0xca7
  Pointer Size:             4
  Segment Size:             0

    Address    Length
    000086ec 00000920 
    00000000 00000000 

Contents of the .debug_loc section:

    Offset   Begin    End      Expression
    00000000 00008020 0000802b (DW_OP_reg0 (r0))
    0000000b 0000802b 0000805c (DW_OP_GNU_entry_value: (DW_OP_reg0 (r0)); DW_OP_stack_value)
    00000019 <End of list>
    00000021 00008020 0000802b (DW_OP_reg1 (r1))
    0000002c 0000802b 0000805c (DW_OP_GNU_entry_value: (DW_OP_reg1 (r1)); DW_OP_stack_value)
    0000003a <End of list>
    00000042 00008020 0000802b (DW_OP_reg2 (r2))
    0000004d 0000802b 0000805c (DW_OP_reg4 (r4))
    00000058 <End of list>
    00000060 0000820c 0000821c (DW_OP_lit0; DW_OP_stack_value)
    0000006c 0000821c 00008230 (DW_OP_reg3 (r3))
    00000077 <End of list>
    0000007f 000081fc 0000820c (DW_OP_lit0; DW_OP_stack_value)
    0000008b 0000820c 00008240 (DW_OP_reg4 (r4))
    00000096 <End of list>
    0000009e 0000824c 000082e8 (DW_OP_reg0 (r0))
    000000a9 000082e8 00008344 (DW_OP_reg0 (r0))
    000000b4 <End of list>
    000000bc 0000824c 00008300 (DW_OP_reg1 (r1))
    000000c7 00008300 00008344 (DW_OP_reg1 (r1))
    000000d2 <End of list>
    000000da 0000824c 00008294 (DW_OP_reg2 (r2))
    000000e5 00008294 00008318 (DW_OP_GNU_entry_value: (DW_OP_reg2 (r2)); DW_OP_stack_value)
    000000f3 00008318 00008344 (DW_OP_reg2 (r2))
    000000fe <End of list>
    00000106 0000824c 00008298 (DW_OP_reg3 (r3))
    00000111 00008298 00008318 (DW_OP_GNU_entry_value: (DW_OP_reg3 (r3)); DW_OP_stack_value)
    0000011f 00008318 00008344 (DW_OP_reg3 (r3))
    0000012a <End of list>
    00000132 00008268 00008314 (DW_OP_reg6 (r6))
    0000013d 00008318 00008330 (DW_OP_reg6 (r6))
    00000148 00008334 00008344 (DW_OP_reg6 (r6))
    00000153 <End of list>
    0000015b 0000826c 00008314 (DW_OP_reg11 (r11))
    00000166 00008318 00008330 (DW_OP_reg11 (r11))
    00000171 <End of list>
    00000179 0000827c 000082a8 (DW_OP_reg8 (r8))
    00000184 000082a8 00008318 (DW_OP_fbreg: -60)
    00000190 00008324 00008330 (DW_OP_reg8 (r8))
    0000019b <End of list>
    000001a3 00008280 00008318 (DW_OP_fbreg: -52)
    000001af <End of list>
    000001b7 000082a8 000082fc (DW_OP_reg12 (r12))
    000001c2 00008300 00008318 (DW_OP_reg12 (r12))
    000001cd <End of list>
    000001d5 000082a8 00008318 (DW_OP_reg1 (r1))
    000001e0 <End of list>
    000001e8 000082a8 000082e8 (DW_OP_reg0 (r0))
    000001f3 00008300 00008318 (DW_OP_reg0 (r0))
    000001fe <End of list>
    00000206 000082d0 000082d4 (DW_OP_breg1 (r1): 0; DW_OP_breg8 (r8): 0; DW_OP_mul; DW_OP_breg0 (r0): 0; DW_OP_lit1; DW_OP_shl; DW_OP_plus; DW_OP_breg9 (r9): 0; DW_OP_plus; DW_OP_stack_value)
    0000021e <End of list>
    00000226 000082cc 000082d4 (DW_OP_breg1 (r1): 0; DW_OP_breg8 (r8): 0; DW_OP_mul; DW_OP_breg0 (r0): 0; DW_OP_lit1; DW_OP_shl; DW_OP_plus; DW_OP_stack_value)
    0000023b <End of list>
    00000243 00008344 00008368 (DW_OP_reg0 (r0))
    0000024e 00008368 00008378 (DW_OP_GNU_entry_value: (DW_OP_reg0 (r0)); DW_OP_stack_value)
    0000025c <End of list>
    00000264 00008344 0000836c (DW_OP_reg1 (r1))
    0000026f 0000836c 00008378 (DW_OP_GNU_entry_value: (DW_OP_reg1 (r1)); DW_OP_stack_value)
    0000027d <End of list>
    00000285 00008364 00008368 (DW_OP_breg1 (r1): 0; DW_OP_breg12 (r12): 0; DW_OP_mul; DW_OP_breg3 (r3): 0; DW_OP_plus; DW_OP_breg0 (r0): 0; DW_OP_lit1; DW_OP_shl; DW_OP_plus; DW_OP_stack_value)
    0000029d 00008368 0000836c (DW_OP_breg1 (r1): 0; DW_OP_breg12 (r12): 0; DW_OP_mul; DW_OP_breg3 (r3): 0; DW_OP_plus; DW_OP_GNU_entry_value: (DW_OP_reg0 (r0)); DW_OP_lit1; DW_OP_shl; DW_OP_plus; DW_OP_stack_value)
    000002b6 0000836c 00008378 (DW_OP_GNU_entry_value: (DW_OP_reg1 (r1)); DW_OP_breg12 (r12): 0; DW_OP_mul; DW_OP_breg3 (r3): 0; DW_OP_plus; DW_OP_GNU_entry_value: (DW_OP_reg0 (r0)); DW_OP_lit1; DW_OP_shl; DW_OP_plus; DW_OP_stack_value)
    000002d0 <End of list>
    000002d8 00008360 00008368 (DW_OP_breg1 (r1): 0; DW_OP_breg12 (r12): 0; DW_OP_mul; DW_OP_breg0 (r0): 0; DW_OP_lit1; DW_OP_shl; DW_OP_plus; DW_OP_stack_value)
    000002ed 00008368 0000836c (DW_OP_breg1 (r1): 0; DW_OP_breg12 (r12): 0; DW_OP_mul; DW_OP_GNU_entry_value: (DW_OP_reg0 (r0)); DW_OP_lit1; DW_OP_shl; DW_OP_plus; DW_OP_stack_value)
    00000303 0000836c 00008378 (DW_OP_GNU_entry_value: (DW_OP_reg1 (r1)); DW_OP_breg12 (r12): 0; DW_OP_mul; DW_OP_GNU_entry_value: (DW_OP_reg0 (r0)); DW_OP_lit1; DW_OP_shl; DW_OP_plus; DW_OP_stack_value)
    0000031a <End of list>
    00000322 00008378 000083a4 (DW_OP_reg0 (r0))
    0000032d 000083a4 00008418 (DW_OP_fbreg: -44)
    00000339 00008418 0000841c (DW_OP_reg0 (r0))
    00000344 0000841c 0000842c (DW_OP_reg3 (r3))
    0000034f <End of list>
    00000357 000083a4 000083b4 (DW_OP_lit0; DW_OP_stack_value)
    00000363 000083b4 000083c0 (DW_OP_breg3 (r3): 1; DW_OP_stack_value)
    00000370 000083c0 00008408 (DW_OP_reg3 (r3))
    0000037b <End of list>
    00000383 000083a4 000083b4 (DW_OP_breg10 (r10): 0; DW_OP_breg5 (r5): 0; DW_OP_plus)
    00000392 000083b4 00008408 (DW_OP_reg6 (r6))
    0000039d <End of list>
    000003a5 000083a0 000083a4 (DW_OP_lit0; DW_OP_stack_value)
    000003b1 000083a4 000083f8 (DW_OP_reg5 (r5))
    000003bc 000083f8 000083fc (DW_OP_breg5 (r5): 1; DW_OP_stack_value)
    000003c9 000083fc 00008408 (DW_OP_reg5 (r5))
    000003d4 <End of list>
    000003dc 000083a0 00008408 (DW_OP_reg10 (r10))
    000003e7 <End of list>
    000003ef 000083b4 00008408 (DW_OP_const2s: -20507; DW_OP_stack_value)
    000003fd <End of list>
    00000405 000083b4 000083f4 (DW_OP_reg0 (r0))
    00000410 000083f4 00008408 (DW_OP_breg0 (r0): -1; DW_OP_stack_value)
    0000041d <End of list>
    00000425 0000842c 00008444 (DW_OP_reg0 (r0))
    00000430 00008444 000084c4 (DW_OP_reg7 (r7))
    0000043b <End of list>
    00000443 0000842c 00008468 (DW_OP_reg1 (r1))
    0000044e 00008468 000084b4 (DW_OP_breg8 (r8): 1; DW_OP_stack_value)
    0000045b 000084b4 000084bc (DW_OP_GNU_entry_value: (DW_OP_reg1 (r1)); DW_OP_stack_value)
    00000469 000084bc 000084c4 (DW_OP_reg1 (r1))
    00000474 <End of list>
    0000047c 0000842c 00008468 (DW_OP_reg2 (r2))
    00000487 00008468 0000847c (DW_OP_reg5 (r5))
    00000492 0000847c 0000849c (DW_OP_reg9 (r9))
    0000049d 0000849c 000084b4 (DW_OP_reg5 (r5))
    000004a8 000084bc 000084c4 (DW_OP_reg2 (r2))
    000004b3 <End of list>
    000004bb 0000842c 00008468 (DW_OP_reg3 (r3))
    000004c6 00008468 000084bc (DW_OP_reg6 (r6))
    000004d1 000084bc 000084c4 (DW_OP_reg3 (r3))
    000004dc <End of list>
    000004e4 0000843c 00008468 (DW_OP_reg2 (r2))
    000004ef 00008468 000084bc (DW_OP_reg9 (r9))
    000004fa 000084bc 000084c4 (DW_OP_reg2 (r2))
    00000505 <End of list>
    0000050d 00008448 00008468 (DW_OP_lit0; DW_OP_stack_value)
    00000519 00008468 000084a0 (DW_OP_reg4 (r4))
    00000524 000084a0 000084a4 (DW_OP_breg4 (r4): -1; DW_OP_stack_value)
    00000531 000084a4 000084b4 (DW_OP_reg4 (r4))
    0000053c 000084bc 000084c4 (DW_OP_lit0; DW_OP_stack_value)
    00000548 <End of list>
    00000550 000084c4 00008527 (DW_OP_reg0 (r0))
    0000055b 00008527 00008544 (DW_OP_reg5 (r5))
    00000566 00008548 0000854c (DW_OP_reg0 (r0))
    00000571 00008594 000085ac (DW_OP_reg5 (r5))
    0000057c 000085bc 000085c4 (DW_OP_reg0 (r0))
    00000587 000085c4 000085d4 (DW_OP_reg5 (r5))
    00000592 000085d4 000085d8 (DW_OP_reg0 (r0))
    0000059d 000085d8 000085dc (DW_OP_reg5 (r5))
    000005a8 000085dc 000085e0 (DW_OP_reg0 (r0))
    000005b3 000085e0 000085e4 (DW_OP_reg5 (r5))
    000005be <End of list>
    000005c6 000084c4 0000851c (DW_OP_reg1 (r1))
    000005d1 0000851c 00008594 (DW_OP_GNU_entry_value: (DW_OP_reg1 (r1)); DW_OP_stack_value)
    000005df 00008594 000085e4 (DW_OP_reg1 (r1))
    000005ea <End of list>
    000005f2 000084c4 000084ec (DW_OP_reg2 (r2))
    000005fd 000084ec 000085dc (DW_OP_reg4 (r4))
    00000608 000085dc 000085e4 (DW_OP_reg2 (r2))
    00000613 <End of list>
    0000061b 00008510 0000851c (DW_OP_lit0; DW_OP_stack_value)
    00000627 0000851c 00008540 (DW_OP_reg6 (r6))
    00000632 00008540 00008548 (DW_OP_breg6 (r6): -1; DW_OP_stack_value)
    0000063f 00008548 0000855c (DW_OP_reg6 (r6))
    0000064a 0000855c 00008560 (DW_OP_breg6 (r6): -1; DW_OP_stack_value)
    00000657 00008560 00008580 (DW_OP_reg3 (r3))
    00000662 00008580 00008588 (DW_OP_reg1 (r1))
    0000066d 00008594 000085b0 (DW_OP_reg6 (r6))
    00000678 000085b0 000085b4 (DW_OP_breg6 (r6): -1; DW_OP_stack_value)
    00000685 000085b4 000085bc (DW_OP_reg6 (r6))
    00000690 <End of list>
    00000698 0000851c 00008527 (DW_OP_breg0 (r0): 0; DW_OP_breg7 (r7): 0; DW_OP_mod; DW_OP_stack_value)
    000006a8 00008527 00008544 (DW_OP_breg5 (r5): 0; DW_OP_breg7 (r7): 0; DW_OP_mod; DW_OP_stack_value)
    000006b8 00008564 00008574 (DW_OP_breg4 (r4): 0; DW_OP_breg2 (r2): 0; DW_OP_plus)
    000006c7 00008574 00008588 (DW_OP_reg12 (r12))
    000006d2 00008598 000085a0 (DW_OP_reg3 (r3))
    000006dd 000085a0 000085ac (DW_OP_breg5 (r5): 0; DW_OP_lit15; DW_OP_and; DW_OP_stack_value)
    000006ec <End of list>
    000006f4 0000855c 00008560 (DW_OP_lit0; DW_OP_stack_value)
    00000700 00008560 0000857c (DW_OP_reg2 (r2))
    0000070b 0000857c 00008588 (DW_OP_reg0 (r0))
    00000716 <End of list>
    0000071e 000084dc 000084ec (DW_OP_lit0; DW_OP_stack_value)
    0000072a 000084ec 000084f0 (DW_OP_reg3 (r3))
    00000735 000084f0 000084f4 (DW_OP_breg3 (r3): -1; DW_OP_stack_value)
    00000742 000084f4 0000851c (DW_OP_reg3 (r3))
    0000074d 000085bc 000085c0 (DW_OP_reg3 (r3))
    00000758 <End of list>
    00000760 000085e4 000085ec (DW_OP_reg0 (r0))
    0000076b 000085ec 00008610 (DW_OP_reg2 (r2))
    00000776 <End of list>
    0000077e 000085e4 000085f8 (DW_OP_lit0; DW_OP_stack_value)
    0000078a 000085f8 000085fc (DW_OP_reg0 (r0))
    00000795 000085fc 00008600 (DW_OP_breg0 (r0): -1; DW_OP_stack_value)
    000007a2 00008600 00008610 (DW_OP_reg0 (r0))
    000007ad <End of list>
    000007b5 00008610 0000866c (DW_OP_reg0 (r0))
    000007c0 0000866c 00008678 (DW_OP_GNU_entry_value: (DW_OP_reg0 (r0)); DW_OP_stack_value)
    000007ce 00008678 0000867c (DW_OP_reg0 (r0))
    000007d9 0000867c 00008688 (DW_OP_GNU_entry_value: (DW_OP_reg0 (r0)); DW_OP_stack_value)
    000007e7 00008688 00008694 (DW_OP_reg0 (r0))
    000007f2 <End of list>
    000007fa 00008610 00008638 (DW_OP_reg1 (r1))
    00000805 00008638 00008678 (DW_OP_GNU_entry_value: (DW_OP_reg1 (r1)); DW_OP_stack_value)
    00000813 00008678 0000867c (DW_OP_reg1 (r1))
    0000081e 0000867c 00008688 (DW_OP_GNU_entry_value: (DW_OP_reg1 (r1)); DW_OP_stack_value)
    0000082c 00008688 00008694 (DW_OP_reg1 (r1))
    00000837 <End of list>
    0000083f 00008610 00008638 (DW_OP_lit0; DW_OP_stack_value)
    0000084b 00008638 00008660 (DW_OP_reg4 (r4))
    00000856 00008678 0000867c (DW_OP_lit0; DW_OP_stack_value)
    00000862 00008688 00008694 (DW_OP_lit0; DW_OP_stack_value)
    0000086e <End of list>
    00000876 00008610 00008638 (DW_OP_lit0; DW_OP_stack_value)
    00000882 00008638 00008660 (DW_OP_reg12 (r12))
    0000088d 00008678 0000867c (DW_OP_lit0; DW_OP_stack_value)
    00000899 00008688 00008694 (DW_OP_lit0; DW_OP_stack_value)
    000008a5 <End of list>
    000008ad 00008694 00008698 (DW_OP_reg0 (r0))
    000008b8 00008698 000086a4 (DW_OP_reg2 (r2))
    000008c3 000086a4 000086ac (DW_OP_breg2 (r2): -1; DW_OP_stack_value)
    000008d0 <End of list>
    000008d8 00008694 00008698 (DW_OP_reg1 (r1))
    000008e3 00008698 0000869c (DW_OP_reg1 (r1))
    000008ee 0000869c 000086ac (DW_OP_breg1 (r1): -1; DW_OP_stack_value)
    000008fb <End of list>
    00000903 000086ac 000086b4 (DW_OP_reg0 (r0))
    0000090e 000086b4 000086d0 (DW_OP_breg0 (r0): 1; DW_OP_stack_value)
    0000091b <End of list>
    00000923 000086ac 000086b4 (DW_OP_reg1 (r1))
    0000092e 000086b4 000086d0 (DW_OP_breg1 (r1): 1; DW_OP_stack_value)
    0000093b 000086d0 000086dc (DW_OP_breg1 (r1): 2; DW_OP_stack_value)
    00000948 000086dc 000086ec (DW_OP_breg1 (r1): 1; DW_OP_stack_value)
    00000955 <End of list>
    0000095d 000086ac 000086d0 (DW_OP_reg2 (r2))
    00000968 000086d0 000086ec (DW_OP_GNU_entry_value: (DW_OP_reg2 (r2)); DW_OP_stack_value)
    00000976 <End of list>
    0000097e 000086b0 000086d0 (DW_OP_lit1; DW_OP_stack_value)
    0000098a 000086d0 000086dc (DW_OP_breg1 (r1): 0; DW_OP_GNU_entry_value: (DW_OP_reg1 (r1)); DW_OP_minus; DW_OP_plus_uconst: 2; DW_OP_stack_value)
    0000099d 000086dc 000086ec (DW_OP_breg1 (r1): 0; DW_OP_GNU_entry_value: (DW_OP_reg1 (r1)); DW_OP_minus; DW_OP_plus_uconst: 1; DW_OP_stack_value)
    000009b0 <End of list>
    000009b8 00008788 00008793 (DW_OP_reg0 (r0))
    000009c3 00008793 00008a3c (DW_OP_GNU_entry_value: (DW_OP_reg0 (r0)); DW_OP_stack_value)
    000009d1 <End of list>
    000009d9 0000879c 000087ac (DW_OP_lit0; DW_OP_stack_value)
    000009e5 000087ac 000087d0 (DW_OP_reg5 (r5))
    000009f0 000087e0 000087f4 (DW_OP_lit8; DW_OP_stack_value)
    000009fc 000087f4 00008818 (DW_OP_reg5 (r5))
    00000a07 0000883c 0000884c (DW_OP_lit0; DW_OP_stack_value)
    00000a13 0000884c 00008870 (DW_OP_reg5 (r5))
    00000a1e 0000889c 000088b0 (DW_OP_lit7; DW_OP_stack_value)
    00000a2a 000088b0 000088d4 (DW_OP_reg5 (r5))
    00000a35 000088fc 00008900 (DW_OP_lit0; DW_OP_stack_value)
    00000a41 00008900 0000890c (DW_OP_reg5 (r5))
    00000a4c 0000890c 00008913 (DW_OP_reg0 (r0))
    00000a57 00008913 00008914 (DW_OP_breg5 (r5): -1; DW_OP_stack_value)
    00000a64 00008914 00008930 (DW_OP_reg5 (r5))
    00000a6f 00008944 00008954 (DW_OP_lit7; DW_OP_stack_value)
    00000a7b 00008954 00008964 (DW_OP_lit8; DW_OP_stack_value)
    00000a87 00008964 00008978 (DW_OP_lit9; DW_OP_stack_value)
    00000a93 00008994 000089d8 (DW_OP_reg5 (r5))
    00000a9e 000089f4 00008a3c (DW_OP_reg5 (r5))
    00000aa9 <End of list>
    00000ab1 0000879c 000087e0 (DW_OP_reg7 (r7))
    00000abc 000087e0 00008830 (DW_OP_reg8 (r8))
    00000ac7 00008830 00008888 (DW_OP_reg9 (r9))
    00000ad2 00008890 000088e8 (DW_OP_reg9 (r9))
    00000add 000088e8 000088fc (DW_OP_lit7; DW_OP_stack_value)
    00000ae9 000088fc 00008930 (DW_OP_reg9 (r9))
    00000af4 00008930 00008944 (DW_OP_lit7; DW_OP_stack_value)
    00000b00 00008944 00008978 (DW_OP_reg5 (r5))
    00000b0b 00008978 00008988 (DW_OP_lit7; DW_OP_stack_value)
    00000b17 00008988 000089d8 (DW_OP_reg7 (r7))
    00000b22 000089d8 000089e8 (DW_OP_lit9; DW_OP_stack_value)
    00000b2e 000089e8 00008a3c (DW_OP_reg8 (r8))
    00000b39 <End of list>
    00000b41 00008a3c 00008a60 (DW_OP_reg0 (r0))
    00000b4c 00008a60 00008ba4 (DW_OP_GNU_entry_value: (DW_OP_reg0 (r0)); DW_OP_stack_value)
    00000b5a <End of list>
    00000b62 00008d94 00008db4 (DW_OP_reg7 (r7))
    00000b6d 00008db4 00008dc8 (DW_OP_reg0 (r0))
    00000b78 00008dc8 00008dcb (DW_OP_reg2 (r2))
    00000b83 00008dcb 00008f64 (DW_OP_reg4 (r4))
    00000b8e 00008f64 00008f67 (DW_OP_reg2 (r2))
    00000b99 <End of list>
    00000ba1 00008e30 00008e4c (DW_OP_breg0 (r0): 0; DW_OP_lit24; DW_OP_shl; DW_OP_lit24; DW_OP_shra; DW_OP_lit3; DW_OP_shl; DW_OP_breg4 (r4): 0; DW_OP_plus; DW_OP_stack_value)
    00000bb7 00008e68 00008e80 (DW_OP_breg0 (r0): 0; DW_OP_lit24; DW_OP_shl; DW_OP_lit24; DW_OP_shra; DW_OP_lit3; DW_OP_shl; DW_OP_breg4 (r4): 0; DW_OP_plus; DW_OP_stack_value)
    00000bcd 00008e9c 00008eb4 (DW_OP_breg0 (r0): 0; DW_OP_lit24; DW_OP_shl; DW_OP_lit24; DW_OP_shra; DW_OP_lit3; DW_OP_shl; DW_OP_breg4 (r4): 0; DW_OP_plus; DW_OP_stack_value)
    00000be3 00008ed0 00008ee0 (DW_OP_breg0 (r0): 0; DW_OP_lit24; DW_OP_shl; DW_OP_lit24; DW_OP_shra; DW_OP_lit3; DW_OP_shl; DW_OP_breg4 (r4): 0; DW_OP_plus; DW_OP_stack_value)
    00000bf9 00008f1c 00008f2c (DW_OP_breg0 (r0): 0; DW_OP_lit24; DW_OP_shl; DW_OP_lit24; DW_OP_shra; DW_OP_lit3; DW_OP_shl; DW_OP_breg4 (r4): 0; DW_OP_plus; DW_OP_stack_value)
    00000c0f <End of list>
    00000c17 00008d94 00008f64 (DW_OP_reg7 (r7))
    00000c22 <End of list>
    00000c2a 00008d94 00008db4 (DW_OP_breg5 (r5): 16; DW_OP_stack_value)
    00000c37 00008db4 00008dcc (DW_OP_breg5 (r5): 48; DW_OP_stack_value)
    00000c44 00008dcc 00008de4 (DW_OP_breg5 (r5): 64; DW_OP_stack_value)
    00000c52 00008de4 00008dfc (DW_OP_breg5 (r5): 80; DW_OP_stack_value)
    00000c60 00008dfc 00008e1c (DW_OP_breg5 (r5): 112; DW_OP_stack_value)
    00000c6e 00008e1c 00008e54 (DW_OP_breg5 (r5): 144; DW_OP_stack_value)
    00000c7c 00008e54 00008e88 (DW_OP_breg5 (r5): 160; DW_OP_stack_value)
    00000c8a 00008e88 00008ebc (DW_OP_breg5 (r5): 176; DW_OP_stack_value)
    00000c98 00008ebc 00008ee8 (DW_OP_breg5 (r5): 192; DW_OP_stack_value)
    00000ca6 00008ee8 00008f08 (DW_OP_breg5 (r5): 208; DW_OP_stack_value)
    00000cb4 00008f08 00008f34 (DW_OP_breg5 (r5): 224; DW_OP_stack_value)
    00000cc2 00008f34 00008f4c (DW_OP_breg5 (r5): 256; DW_OP_stack_value)
    00000cd0 00008f4c 00008f64 (DW_OP_breg5 (r5): 288; DW_OP_stack_value)
    00000cde <End of list>
    00000ce6 00008d70 00008da8 (DW_OP_reg0 (r0))
    00000cf1 <End of list>
    00000cf9 00008fa4 00008fd0 (DW_OP_reg0 (r0))
    00000d04 00008fd0 0000900c (DW_OP_reg5 (r5))
    00000d0f <End of list>

Contents of the .debug_ranges section:

    Offset   Begin    End
    00000000 00008020 0000805c 
    00000000 <End of list>
    00000010 00008298 0000829c 
    00000010 000082b0 000082dc 
    00000010 <End of list>
    00000010 00008298 0000829c 
    00000010 000082b0 000082dc 
    00000010 <End of list>
    00000028 00008394 0000839c 
    00000028 000083c4 000083ec 
    00000028 <End of list>
    00000028 00008394 0000839c 
    00000028 000083c4 000083ec 
    00000028 <End of list>

Contents of the .debug_str section:

  0x00000000 6c6f6e67 206c6f6e 6720696e 7400736f long long int.so
  0x00000010 75726365 2f70726f 6772616d 2e630061 urce/program.c.a
  0x00000020 70616761 5f414354 5f4c4544 006d6169 paga_ACT_LED.mai
  0x00000030 6e006c6f 6e67206c 6f6e6720 756e7369 n.long long unsi
  0x00000040 676e6564 20696e74 00617461 67734164 gned int.atagsAd
  0x00000050 64720075 6e736967 6e656420 63686172 dr.unsigned char
  0x00000060 00686162 696c6974 61725f47 50494f5f .habilitar_GPIO_
  0x00000070 4143545f 4c45445f 6f757470 75740047 ACT_LED_output.G
  0x00000080 4e552043 20342e38 2e32202d 6d667075 NU C 4.8.2 -mfpu
  0x00000090 3d766670 202d6d66 6c6f6174 2d616269 =vfp -mfloat-abi
  0x000000a0 3d686172 64202d6d 61726368 3d61726d =hard -march=arm
  0x000000b0 76367a6b 202d6d74 756e653d 61726d31 v6zk -mtune=arm1
  0x000000c0 3137366a 7a662d73 202d6720 2d4f3200 176jzf-s -g -O2.
  0x000000d0 5f5f7569 6e743332 5f740073 686f7274 __uint32_t.short
  0x000000e0 20756e73 69676e65 6420696e 74006267  unsigned int.bg
  0x000000f0 52656672 65736800 656e6369 656e6465 Refresh.enciende
  0x00000100 5f414354 5f4c4544 00525049 5f657370 _ACT_LED.RPI_esp
  0x00000110 65726172 4d696372 6f536563 6f6e6473 erarMicroSeconds
  0x00000120 0073686f 72742069 6e740062 67496e69 .short int.bgIni
  0x00000130 74002f68 6f6d652f 726f6265 72742f44 t./home/robert/D
  0x00000140 65736b74 6f702f72 6173702f 63686170 esktop/rasp/chap
  0x00000150 757a6173 2f74656d 706c6174 65320073 uzas/template2.s
  0x00000160 6f757263 652f7270 692d6770 696f2e63 ource/rpi-gpio.c
  0x00000170 00677069 6f00636f 6d706172 65300063 .gpio.compare0.c
  0x00000180 6f6d7061 72653100 636f6d70 61726532 ompare1.compare2
  0x00000190 00636f6d 70617265 3300636f 756e7465 .compare3.counte
  0x000001a0 725f6869 00636f6e 74726f6c 5f737461 r_hi.control_sta
  0x000001b0 74757300 636f756e 7465725f 6c6f0052 tus.counter_lo.R
  0x000001c0 50495f47 65745379 7374656d 54696d65 PI_GetSystemTime
  0x000001d0 72007270 695f7379 735f7469 6d65725f r.rpi_sys_timer_
  0x000001e0 74007270 69537973 74656d54 696d6572 t.rpiSystemTimer
  0x000001f0 00736f75 7263652f 7270692d 73797374 .source/rpi-syst
  0x00000200 696d6572 2e630072 65616465 64426974 imer.c.readedBit
  0x00000210 73007061 696e7445 6e746972 65536372 s.paintEntireScr
  0x00000220 65656e00 70697865 6c007657 69647468 een.pixel.vWidth
  0x00000230 00705769 64746800 706f6c6c 00467261 .pWidth.poll.Fra
  0x00000240 6d654275 66666572 496e666f 00737472 meBufferInfo.str
  0x00000250 696e6700 64726177 53747269 6e67005f ing.drawString._
  0x00000260 5f75696e 7431365f 7400436f 6c6f7572 _uint16_t.Colour
  0x00000270 31366200 73656e64 65720064 72617743 16b.sender.drawC
  0x00000280 68617261 63746572 00537973 74656d44 haracter.SystemD
  0x00000290 65666175 6c74466f 6e74496e 666f006e efaultFontInfo.n
  0x000002a0 65787443 68617200 72656164 32007265 extChar.read2.re
  0x000002b0 61643300 72656164 34006f66 66736574 ad3.read4.offset
  0x000002c0 005f5f75 696e7438 5f740063 75727265 .__uint8_t.curre
  0x000002d0 6e744368 61724164 64726573 7300636f ntCharAddress.co
  0x000002e0 6e666967 75726174 696f6e00 6c656e67 nfiguration.leng
  0x000002f0 74680076 48656967 68740066 6f6e7449 th.vHeight.fontI
  0x00000300 6e666f41 64647265 7373005f 5f696e74 nfoAddress.__int
  0x00000310 385f7400 77726974 65007048 65696768 8_t.write.pHeigh
  0x00000320 74004672 616d6542 75666665 72446573 t.FrameBufferDes
  0x00000330 63727000 72656164 31007369 7a650073 crp.read1.size.s
  0x00000340 6f757263 652f6770 75467261 6d654275 ource/gpuFrameBu
  0x00000350 66666572 2e63005f 5f696e74 33325f74 ffer.c.__int32_t
  0x00000360 00706f69 6e746572 00727069 5f677075 .pointer.rpi_gpu
  0x00000370 5f6d6169 6c626f78 5f740070 6f735800 _mailbox_t.posX.
  0x00000380 706f7359 00525049 5f476574 4672616d posY.RPI_GetFram
  0x00000390 65427566 66657244 65736370 72007270 eBufferDescpr.rp
  0x000003a0 695f6770 755f6672 616d6562 75666665 i_gpu_framebuffe
  0x000003b0 725f6465 73637269 70746f72 5f740070 r_descriptor_t.p
  0x000003c0 69746368 00727069 4770754d 61696c62 itch.rpiGpuMailb
  0x000003d0 6f780063 4d6f6465 00736574 50697865 ox.cMode.setPixe
  0x000003e0 6c007265 6d696e64 65720075 696e7454 l.reminder.uintT
  0x000003f0 6f537472 696e6700 73747263 70790073 oString.strcpy.s
  0x00000400 7472696e 674c656e 67746800 736f7572 tringLength.sour
  0x00000410 63652f73 7472696e 672e6300 7374726e ce/string.c.strn
  0x00000420 63707900 73617665 00646573 74006261 cpy.save.dest.ba
  0x00000430 7365006e 756d4368 61727300 64697643 se.numChars.divC
  0x00000440 6f6e7400 70617474 65726e00 73656172 ont.pattern.sear
  0x00000450 63685374 72696e67 50617474 65726e00 chStringPattern.
  0x00000460 636f6e74 00657175 616c7300 636f6c6f cont.equals.colo
  0x00000470 72006267 44726177 45646765 73007369 r.bgDrawEdges.si
  0x00000480 7a657479 70650063 75727265 6e745800 zetype.currentX.
  0x00000490 63757272 656e7459 00706172 73654174 currentY.parseAt
  0x000004a0 61677300 64697370 6c617942 67496e66 ags.displayBgInf
  0x000004b0 6f006672 65714350 55006174 61675f63 o.freqCPU.atag_c
  0x000004c0 6d646c69 6e650073 6f757263 652f7363 mdline.source/sc
  0x000004d0 7265656e 6261636b 67726f75 6e642e63 reenbackground.c
  0x000004e0 00626743 6f6c6f72 00637572 72656e74 .bgColor.current
  0x000004f0 58320072 65736f6c 7574696f 6e007365 X2.resolution.se
  0x00000500 7269616c 00626749 6e666f00 6267496e rial.bgInfo.bgIn
  0x00000510 666f5f74 006f6e54 696d6500 626f6172 fo_t.onTime.boar
  0x00000520 64004261 636b6772 6f756e64 496e666f d.BackgroundInfo
  0x00000530 00776f72 6b696e67 43686172 00617461 .workingChar.ata
  0x00000540 67730063 6d644c69 6e650062 67447261 gs.cmdLine.bgDra
  0x00000550 774c6f67 6f006174 61675f68 65616465 wLogo.atag_heade
  0x00000560 7200                                r.

Contents of the .debug_frame section:

00000000 0000000c ffffffff CIE
  Version:               1
  Augmentation:          ""
  Code alignment factor: 2
  Data alignment factor: -4
  Return address column: 14

  DW_CFA_def_cfa: r13 ofs 0

00000010 00000014 00000000 FDE cie=00000000 pc=00008020..0000805c
  DW_CFA_advance_loc: 8 to 00008028
  DW_CFA_def_cfa_offset: 8
  DW_CFA_offset: r3 at cfa-8
  DW_CFA_offset: r14 at cfa-4
  DW_CFA_nop

00000028 0000000c ffffffff CIE
  Version:               1
  Augmentation:          ""
  Code alignment factor: 2
  Data alignment factor: -4
  Return address column: 14

  DW_CFA_def_cfa: r13 ofs 0

00000038 0000000c 00000028 FDE cie=00000028 pc=00008168..00008180

00000048 0000000c 00000028 FDE cie=00000028 pc=00008180..00008194

00000058 0000000c 00000028 FDE cie=00000028 pc=00008194..000081a8

00000068 0000000c ffffffff CIE
  Version:               1
  Augmentation:          ""
  Code alignment factor: 2
  Data alignment factor: -4
  Return address column: 14

  DW_CFA_def_cfa: r13 ofs 0

00000078 0000000c 00000068 FDE cie=00000068 pc=000081a8..000081b4

00000088 00000010 00000068 FDE cie=00000068 pc=000081b4..000081e4
  DW_CFA_advance_loc: 8 to 000081bc
  DW_CFA_def_cfa_offset: 8
  DW_CFA_nop

0000009c 0000000c ffffffff CIE
  Version:               1
  Augmentation:          ""
  Code alignment factor: 2
  Data alignment factor: -4
  Return address column: 14

  DW_CFA_def_cfa: r13 ofs 0

000000ac 0000000c 0000009c FDE cie=0000009c pc=000081e4..000081f0

000000bc 00000014 0000009c FDE cie=0000009c pc=000081f0..0000824c
  DW_CFA_advance_loc: 8 to 000081f8
  DW_CFA_def_cfa_offset: 4
  DW_CFA_offset: r4 at cfa-4
  DW_CFA_nop
  DW_CFA_nop
  DW_CFA_nop

000000d4 00000024 0000009c FDE cie=0000009c pc=0000824c..00008344
  DW_CFA_advance_loc: 4 to 00008250
  DW_CFA_def_cfa_offset: 32
  DW_CFA_offset: r4 at cfa-32
  DW_CFA_offset: r5 at cfa-28
  DW_CFA_offset: r6 at cfa-24
  DW_CFA_offset: r7 at cfa-20
  DW_CFA_offset: r8 at cfa-16
  DW_CFA_offset: r9 at cfa-12
  DW_CFA_offset: r10 at cfa-8
  DW_CFA_offset: r11 at cfa-4
  DW_CFA_advance_loc: 4 to 00008254
  DW_CFA_def_cfa_offset: 56
  DW_CFA_nop
  DW_CFA_nop

000000fc 0000000c 0000009c FDE cie=0000009c pc=00008344..00008378

0000010c 00000024 0000009c FDE cie=0000009c pc=00008378..0000842c
  DW_CFA_advance_loc: 4 to 0000837c
  DW_CFA_def_cfa_offset: 32
  DW_CFA_offset: r4 at cfa-32
  DW_CFA_offset: r5 at cfa-28
  DW_CFA_offset: r6 at cfa-24
  DW_CFA_offset: r7 at cfa-20
  DW_CFA_offset: r8 at cfa-16
  DW_CFA_offset: r9 at cfa-12
  DW_CFA_offset: r10 at cfa-8
  DW_CFA_offset: r11 at cfa-4
  DW_CFA_advance_loc: 8 to 00008384
  DW_CFA_def_cfa_offset: 40
  DW_CFA_nop
  DW_CFA_nop

00000134 00000020 0000009c FDE cie=0000009c pc=0000842c..000084c4
  DW_CFA_advance_loc: 8 to 00008434
  DW_CFA_def_cfa_offset: 32
  DW_CFA_offset: r3 at cfa-32
  DW_CFA_offset: r4 at cfa-28
  DW_CFA_offset: r5 at cfa-24
  DW_CFA_offset: r6 at cfa-20
  DW_CFA_offset: r7 at cfa-16
  DW_CFA_offset: r8 at cfa-12
  DW_CFA_offset: r9 at cfa-8
  DW_CFA_offset: r14 at cfa-4
  DW_CFA_nop

00000158 0000000c ffffffff CIE
  Version:               1
  Augmentation:          ""
  Code alignment factor: 2
  Data alignment factor: -4
  Return address column: 14

  DW_CFA_def_cfa: r13 ofs 0

00000168 0000001c 00000158 FDE cie=00000158 pc=000084c4..000085e4
  DW_CFA_advance_loc: 8 to 000084cc
  DW_CFA_def_cfa_offset: 24
  DW_CFA_offset: r3 at cfa-24
  DW_CFA_offset: r4 at cfa-20
  DW_CFA_offset: r5 at cfa-16
  DW_CFA_offset: r6 at cfa-12
  DW_CFA_offset: r7 at cfa-8
  DW_CFA_offset: r14 at cfa-4
  DW_CFA_nop

00000188 0000000c 00000158 FDE cie=00000158 pc=000085e4..00008610

00000198 00000014 00000158 FDE cie=00000158 pc=00008610..00008694
  DW_CFA_advance_loc: 8 to 00008618
  DW_CFA_def_cfa_offset: 4
  DW_CFA_offset: r4 at cfa-4
  DW_CFA_nop
  DW_CFA_nop
  DW_CFA_nop

000001b0 0000000c 00000158 FDE cie=00000158 pc=00008694..000086ac

000001c0 0000000c 00000158 FDE cie=00000158 pc=000086ac..000086ec

000001d0 0000000c ffffffff CIE
  Version:               1
  Augmentation:          ""
  Code alignment factor: 2
  Data alignment factor: -4
  Return address column: 14

  DW_CFA_def_cfa: r13 ofs 0

000001e0 00000014 000001d0 FDE cie=000001d0 pc=000086ec..00008788
  DW_CFA_advance_loc: 4 to 000086f0
  DW_CFA_def_cfa_offset: 8
  DW_CFA_offset: r4 at cfa-8
  DW_CFA_offset: r14 at cfa-4
  DW_CFA_nop

000001f8 00000020 000001d0 FDE cie=000001d0 pc=00008788..00008a3c
  DW_CFA_advance_loc: 4 to 0000878c
  DW_CFA_def_cfa_offset: 32
  DW_CFA_offset: r3 at cfa-32
  DW_CFA_offset: r4 at cfa-28
  DW_CFA_offset: r5 at cfa-24
  DW_CFA_offset: r6 at cfa-20
  DW_CFA_offset: r7 at cfa-16
  DW_CFA_offset: r8 at cfa-12
  DW_CFA_offset: r9 at cfa-8
  DW_CFA_offset: r14 at cfa-4
  DW_CFA_nop

0000021c 00000018 000001d0 FDE cie=000001d0 pc=00008a3c..00008ba4
  DW_CFA_advance_loc: 4 to 00008a40
  DW_CFA_def_cfa_offset: 16
  DW_CFA_offset: r3 at cfa-16
  DW_CFA_offset: r4 at cfa-12
  DW_CFA_offset: r5 at cfa-8
  DW_CFA_offset: r14 at cfa-4
  DW_CFA_nop

00000238 00000018 000001d0 FDE cie=000001d0 pc=00008ba4..00008d68
  DW_CFA_advance_loc: 4 to 00008ba8
  DW_CFA_def_cfa_offset: 16
  DW_CFA_offset: r4 at cfa-16
  DW_CFA_offset: r5 at cfa-12
  DW_CFA_offset: r6 at cfa-8
  DW_CFA_offset: r14 at cfa-4
  DW_CFA_nop

00000254 0000001c 000001d0 FDE cie=000001d0 pc=00008d68..00008fa4
  DW_CFA_advance_loc: 4 to 00008d6c
  DW_CFA_def_cfa_offset: 24
  DW_CFA_offset: r4 at cfa-24
  DW_CFA_offset: r5 at cfa-20
  DW_CFA_offset: r6 at cfa-16
  DW_CFA_offset: r7 at cfa-12
  DW_CFA_offset: r8 at cfa-8
  DW_CFA_offset: r14 at cfa-4
  DW_CFA_nop

00000274 00000018 000001d0 FDE cie=000001d0 pc=00008fa4..0000900c
  DW_CFA_advance_loc: 4 to 00008fa8
  DW_CFA_def_cfa_offset: 16
  DW_CFA_offset: r3 at cfa-16
  DW_CFA_offset: r4 at cfa-12
  DW_CFA_offset: r5 at cfa-8
  DW_CFA_offset: r14 at cfa-4
  DW_CFA_nop

