
Memory Configuration

Name             Origin             Length             Attributes
*default*        0x0000000000000000 0xffffffffffffffff

Linker script and memory map

LOAD build/boot.o
LOAD build/rpi-gpuMailbox.o
LOAD build/divisions.o
LOAD build/main.o
LOAD build/rpi-gpio.o
LOAD build/rpi-systimer.o
LOAD build/gpuFrameBuffer.o
LOAD build/rpi-atags.o
LOAD build/string.o
LOAD build/screenbackground.o

.text           0x0000000000008000     0x100c
 *(.text.startup)
 .text.startup  0x0000000000008000       0x20 build/boot.o
                0x0000000000008000                _start
 .text.startup  0x0000000000008020       0x3c build/main.o
                0x0000000000008020                main
 *(.text)
 .text          0x000000000000805c        0x0 build/boot.o
 .text          0x000000000000805c       0xd0 build/rpi-gpuMailbox.o
                0x000000000000805c                MailboxWrite
                0x0000000000008090                MailboxRead
                0x00000000000080c8                InitialiseFrameBuffer
 .text          0x000000000000812c       0x3c build/divisions.o
                0x000000000000812c                __aeabi_uidiv
                0x000000000000812c                __aeabi_uidivmod
 .text          0x0000000000008168        0x0 build/main.o
 .text          0x0000000000008168       0x40 build/rpi-gpio.o
                0x0000000000008168                habilitar_GPIO_ACT_LED_output
                0x0000000000008180                apaga_ACT_LED
                0x0000000000008194                enciende_ACT_LED
 .text          0x00000000000081a8       0x3c build/rpi-systimer.o
                0x00000000000081a8                RPI_GetSystemTimer
                0x00000000000081b4                RPI_esperarMicroSeconds
 .text          0x00000000000081e4      0x2e0 build/gpuFrameBuffer.o
                0x00000000000081e4                RPI_GetFrameBufferDescpr
                0x00000000000081f0                paintEntireScreen
                0x000000000000824c                line
                0x0000000000008344                setPixel
                0x0000000000008378                drawCharacter
                0x000000000000842c                drawString
 .text          0x00000000000084c4        0x0 build/rpi-atags.o
 .text          0x00000000000084c4      0x228 build/string.o
                0x00000000000084c4                uintToString
                0x00000000000085e4                stringLength
                0x0000000000008610                searchStringPattern
                0x0000000000008694                strcpy
                0x00000000000086ac                strncpy
 .text          0x00000000000086ec      0x920 build/screenbackground.o
                0x00000000000086ec                bgRefresh
                0x0000000000008788                bgDrawEdges
                0x0000000000008a3c                bgDrawLogo
                0x0000000000008ba4                parseAtags
                0x0000000000008d68                displayBgInfo
                0x0000000000008fa4                bgInit

.glue_7         0x000000000000900c        0x0
 .glue_7        0x0000000000000000        0x0 linker stubs

.glue_7t        0x000000000000900c        0x0
 .glue_7t       0x0000000000000000        0x0 linker stubs

.vfp11_veneer   0x000000000000900c        0x0
 .vfp11_veneer  0x0000000000000000        0x0 linker stubs

.v4_bx          0x000000000000900c        0x0
 .v4_bx         0x0000000000000000        0x0 linker stubs

.iplt           0x000000000000900c        0x0
 .iplt          0x0000000000000000        0x0 build/boot.o

.rel.dyn        0x000000000000900c        0x0
 .rel.iplt      0x0000000000000000        0x0 build/boot.o

.data           0x000000000000a000     0x2244
 *(.data)
 .data          0x000000000000a000     0x2000 build/boot.o
                0x000000000000a000                BackgroundInfo
                0x000000000000b000                FrameBufferInfo
                0x000000000000b030                SystemDefaultFontInfo
 .data          0x000000000000c000        0x0 build/rpi-gpuMailbox.o
 .data          0x000000000000c000        0x0 build/divisions.o
 .data          0x000000000000c000        0x0 build/main.o
 .data          0x000000000000c000        0x0 build/rpi-gpio.o
 .data          0x000000000000c000        0x0 build/rpi-systimer.o
 .data          0x000000000000c000        0x0 build/gpuFrameBuffer.o
 .data          0x000000000000c000        0x0 build/rpi-atags.o
 .data          0x000000000000c000        0x0 build/string.o
 .data          0x000000000000c000        0x0 build/screenbackground.o
 *(.rodata*)
 .rodata        0x000000000000c000       0xe4 build/screenbackground.o
 .rodata.str1.4
                0x000000000000c0e4      0x160 build/screenbackground.o
OUTPUT(build/output.elf elf32-littlearm)

.igot.plt       0x000000000000c244        0x0
 .igot.plt      0x0000000000000000        0x0 build/boot.o

.bss            0x000000000000c244        0x0
 .bss           0x000000000000c244        0x0 build/boot.o
 .bss           0x000000000000c244        0x0 build/rpi-gpuMailbox.o
 .bss           0x000000000000c244        0x0 build/divisions.o
 .bss           0x000000000000c244        0x0 build/main.o
 .bss           0x000000000000c244        0x0 build/rpi-gpio.o
 .bss           0x000000000000c244        0x0 build/rpi-systimer.o
 .bss           0x000000000000c244        0x0 build/gpuFrameBuffer.o
 .bss           0x000000000000c244        0x0 build/rpi-atags.o
 .bss           0x000000000000c244        0x0 build/string.o
 .bss           0x000000000000c244        0x0 build/screenbackground.o

.ARM.attributes
                0x0000000000000000       0x31
 .ARM.attributes
                0x0000000000000000       0x14 build/boot.o
 .ARM.attributes
                0x0000000000000014       0x1f build/rpi-gpuMailbox.o
 .ARM.attributes
                0x0000000000000033       0x16 build/divisions.o
 .ARM.attributes
                0x0000000000000049       0x35 build/main.o
 .ARM.attributes
                0x000000000000007e       0x35 build/rpi-gpio.o
 .ARM.attributes
                0x00000000000000b3       0x35 build/rpi-systimer.o
 .ARM.attributes
                0x00000000000000e8       0x35 build/gpuFrameBuffer.o
 .ARM.attributes
                0x000000000000011d       0x35 build/rpi-atags.o
 .ARM.attributes
                0x0000000000000152       0x35 build/string.o
 .ARM.attributes
                0x0000000000000187       0x35 build/screenbackground.o

.comment        0x0000000000000000       0x1f
 .comment       0x0000000000000000       0x1f build/main.o
                                         0x20 (size before relaxing)
 .comment       0x0000000000000000       0x20 build/rpi-gpio.o
 .comment       0x0000000000000000       0x20 build/rpi-systimer.o
 .comment       0x0000000000000000       0x20 build/gpuFrameBuffer.o
 .comment       0x0000000000000000       0x20 build/rpi-atags.o
 .comment       0x0000000000000000       0x20 build/string.o
 .comment       0x0000000000000000       0x20 build/screenbackground.o

.debug_line     0x0000000000000000      0x7fa
 .debug_line    0x0000000000000000       0x42 build/boot.o
 .debug_line    0x0000000000000042       0x80 build/rpi-gpuMailbox.o
 .debug_line    0x00000000000000c2       0x50 build/divisions.o
 .debug_line    0x0000000000000112       0xce build/main.o
 .debug_line    0x00000000000001e0       0x44 build/rpi-gpio.o
 .debug_line    0x0000000000000224       0xb0 build/rpi-systimer.o
 .debug_line    0x00000000000002d4      0x1c3 build/gpuFrameBuffer.o
 .debug_line    0x0000000000000497      0x137 build/string.o
 .debug_line    0x00000000000005ce      0x22c build/screenbackground.o

.debug_info     0x0000000000000000     0x170d
 .debug_info    0x0000000000000000       0x61 build/boot.o
 .debug_info    0x0000000000000061       0x6b build/rpi-gpuMailbox.o
 .debug_info    0x00000000000000cc       0x66 build/divisions.o
 .debug_info    0x0000000000000132      0x1bb build/main.o
 .debug_info    0x00000000000002ed       0x7f build/rpi-gpio.o
 .debug_info    0x000000000000036c      0x14d build/rpi-systimer.o
 .debug_info    0x00000000000004b9      0x53c build/gpuFrameBuffer.o
 .debug_info    0x00000000000009f5      0x2b2 build/string.o
 .debug_info    0x0000000000000ca7      0xa66 build/screenbackground.o

.debug_abbrev   0x0000000000000000      0x7a0
 .debug_abbrev  0x0000000000000000       0x14 build/boot.o
 .debug_abbrev  0x0000000000000014       0x14 build/rpi-gpuMailbox.o
 .debug_abbrev  0x0000000000000028       0x14 build/divisions.o
 .debug_abbrev  0x000000000000003c       0xff build/main.o
 .debug_abbrev  0x000000000000013b       0x5b build/rpi-gpio.o
 .debug_abbrev  0x0000000000000196       0xcb build/rpi-systimer.o
 .debug_abbrev  0x0000000000000261      0x1e8 build/gpuFrameBuffer.o
 .debug_abbrev  0x0000000000000449      0x13c build/string.o
 .debug_abbrev  0x0000000000000585      0x21b build/screenbackground.o

.debug_aranges  0x0000000000000000      0x120
 .debug_aranges
                0x0000000000000000       0x20 build/boot.o
 .debug_aranges
                0x0000000000000020       0x20 build/rpi-gpuMailbox.o
 .debug_aranges
                0x0000000000000040       0x20 build/divisions.o
 .debug_aranges
                0x0000000000000060       0x20 build/main.o
 .debug_aranges
                0x0000000000000080       0x20 build/rpi-gpio.o
 .debug_aranges
                0x00000000000000a0       0x20 build/rpi-systimer.o
 .debug_aranges
                0x00000000000000c0       0x20 build/gpuFrameBuffer.o
 .debug_aranges
                0x00000000000000e0       0x20 build/string.o
 .debug_aranges
                0x0000000000000100       0x20 build/screenbackground.o

.debug_loc      0x0000000000000000      0xd17
 .debug_loc     0x0000000000000000       0x60 build/main.o
 .debug_loc     0x0000000000000060      0x4f0 build/gpuFrameBuffer.o
 .debug_loc     0x0000000000000550      0x468 build/string.o
 .debug_loc     0x00000000000009b8      0x35f build/screenbackground.o

.debug_ranges   0x0000000000000000       0x40
 .debug_ranges  0x0000000000000000       0x10 build/main.o
 .debug_ranges  0x0000000000000010       0x30 build/gpuFrameBuffer.o

.debug_str      0x0000000000000000      0x562
 .debug_str     0x0000000000000000      0x15f build/main.o
                                        0x1a1 (size before relaxing)
 .debug_str     0x000000000000015f       0x17 build/rpi-gpio.o
                                         0xdf (size before relaxing)
 .debug_str     0x0000000000000176       0x91 build/rpi-systimer.o
                                        0x1bf (size before relaxing)
 .debug_str     0x0000000000000207      0x1db build/gpuFrameBuffer.o
                                        0x322 (size before relaxing)
 .debug_str     0x00000000000003e2       0x8a build/string.o
                                        0x1c7 (size before relaxing)
 .debug_str     0x000000000000046c       0xf6 build/screenbackground.o
                                        0x33a (size before relaxing)

.debug_frame    0x0000000000000000      0x290
 .debug_frame   0x0000000000000000       0x28 build/main.o
 .debug_frame   0x0000000000000028       0x40 build/rpi-gpio.o
 .debug_frame   0x0000000000000068       0x34 build/rpi-systimer.o
 .debug_frame   0x000000000000009c       0xbc build/gpuFrameBuffer.o
 .debug_frame   0x0000000000000158       0x78 build/string.o
 .debug_frame   0x00000000000001d0       0xc0 build/screenbackground.o
